(dp0
S'HKG_001_a_0003'
p1
(lp2
(dp3
S'lefthandshape'
p4
NsS'frame'
p5
I48
sS'pos'
p6
(lp7
I352
aI202
aI239
aI373
aF0.5222222164197532
aF0.5524861878453039
aF-0.7333333251851853
aF1.4972375690607735
asS'handshape'
p8
(lp9
F0.0
aF13.08863639831543
aF0.0
aF0.0
aF3.593787431716919
aF0.0
aF0.0
aF0.0
aF0.12040577828884125
aF0.0
aF0.0
aF10.95640754699707
aF0.0
aF0.0
aF0.0
aF0.0
aF0.0
aF0.0
aF18.560163497924805
aF0.0
aF0.0
aF0.0
aF0.0
aF0.0
aF0.0
aF2.5152602195739746
aF0.0
aF0.0
aF0.0
aF0.0
aF10.91132926940918
aF0.0
aF8.48946762084961
aF4.061637878417969
aF0.0
aF0.0
aF0.0
aF17.41020965576172
aF0.0
aF0.0
aF0.0
aF5.0256781578063965
aF0.0
aF0.0
aF0.0
aF0.0
aF0.4323931336402893
aF0.0
aF17.10680389404297
aF0.0
aF4.36224889755249
aF0.0
aF1.1084164381027222
aF0.0
aF0.0
aF3.161817789077759
aF0.0
aF0.0
aF3.4577746391296387
aF4.752292156219482
aF0.0
aF0.0
aF0.0
aF16.11764907836914
aF0.0
aF0.0
aF0.0
aF0.0
aF0.0
aF0.0
aF0.0
aF0.0
aF1.501336693763733
aF0.0
aF0.0
aF0.0
aF0.0
aF4.299643039703369
aF0.0
aF0.0
aF0.0
aF0.0
aF0.0
aF0.0
aF0.0
aF0.0
aF0.0
aF0.0
aF0.0
aF0.0
aF0.0
aF0.8883471488952637
aF7.488983631134033
aF0.0
aF1.809051275253296
aF0.0
aF0.0
aF0.0
aF0.0
aF0.96603924036026
aF9.32918643951416
aF0.0
aF0.0
aF0.0
aF8.035697937011719
aF0.0
aF0.0
aF0.15626280009746552
aF0.0
aF3.8698644638061523
aF0.0
aF0.0
aF0.0
aF0.0
aF0.0
aF0.0
aF0.0
aF0.0
aF0.0
aF0.0
aF0.0
aF0.0
aF0.0
aF0.0
aF0.0
aF0.0
aF0.0
aF0.0
aF0.0
aF0.0
aF0.0
aF1.1202037334442139
aF0.0
aF0.0
aF0.0
aF0.0
aF5.069299697875977
aF0.0
aF0.0
aF0.0
aF0.0
aF2.1661064624786377
aF0.0
aF0.0
aF0.6365782022476196
aF0.0
aF0.0
aF0.0
aF0.0
aF0.0
aF0.0
aF0.0
aF0.0
aF9.910183906555176
aF0.0
aF0.0
aF14.73203182220459
aF0.0
aF0.0
aF0.0
aF4.971181392669678
aF0.0
aF0.0
aF0.0
aF0.0
aF0.0
aF0.0
aF0.0
aF0.0
aF0.0
aF0.0
aF0.0
aF9.030291557312012
aF0.0
aF0.0
aF0.0
aF0.0
aF0.0
aF0.0
aF0.0
aF0.0
aF0.0
aF0.0
aF0.0
aF14.390739440917969
aF0.0
aF0.0
aF0.0
aF0.0
aF0.0
aF0.0
aF0.41939979791641235
aF0.0
aF0.0
aF0.0
aF0.0
aF0.0
aF0.0
aF5.971087455749512
aF0.0
aF0.0
aF0.0
aF0.0
aF0.20931901037693024
aF0.0
aF0.0
aF2.8778038024902344
aF0.0
aF0.0
aF0.0
aF0.0
aF0.7498292326927185
aF0.0
aF0.0
aF3.573709011077881
aF3.3485207557678223
aF1.9388734102249146
aF0.0
aF12.44385814666748
aF0.0
aF0.0
aF0.0
aF1.9004188776016235
aF3.728105306625366
aF4.180298805236816
aF0.0
aF0.0
aF0.0
aF3.5573408603668213
aF0.0
aF0.14692167937755585
aF0.0
aF0.0
aF0.0
aF0.0
aF0.0
aF11.539159774780273
aF0.0
aF0.0
aF0.0
aF0.0
aF0.0
aF0.0
aF0.0
aF0.0
aF8.253617286682129
aF0.0
aF0.0
aF10.920943260192871
aF0.0
aF0.0
aF0.0
aF0.0
aF0.0
aF6.513279914855957
aF0.0
aF18.662986755371094
aF0.0
aF0.0
aF0.0
aF14.054277420043945
aF0.0
aF0.0
aF0.0
aF0.0
aF0.6336616277694702
aF1.4933850765228271
aF0.0
aF0.0
aF0.0
aF0.0
aF0.0
aF3.157388925552368
aF0.0
aF8.505707740783691
aF0.0
aF0.6384435892105103
aF0.0
aF0.0
aF0.0
aF0.0
aF0.0
aF0.0
aF0.0
aF0.0
aF6.371070861816406
aF0.0
aF0.0
aF0.0
aF0.0
aF0.0
aF0.0
aF0.0
aF0.0
aF0.0
aF0.0
aF0.0
aF17.512548446655273
aF0.0
aF0.0
aF0.0
aF0.0
aF0.0
aF0.0
aF0.0
aF0.0
aF0.0
aF0.0
aF0.0
aF0.0
aF15.519791603088379
aF0.0
aF0.0
aF0.0
aF0.0
aF0.0
aF1.456746220588684
aF0.0
aF0.0
aF0.0
aF0.0
aF0.0
aF0.0
aF0.0
aF14.584686279296875
aF0.0
aF0.0
aF5.591833591461182
aF0.0
aF0.0
aF4.185865879058838
aF0.0
aF2.1193459033966064
aF0.0
aF1.5512346029281616
aF0.0
aF0.0
aF2.2957234382629395
aF0.821608304977417
aF0.0
aF0.0
aF0.0
aF0.0
aF0.0
aF2.3901872634887695
aF0.0
aF3.7505719661712646
aF0.0
aF0.0
aF0.9068018794059753
aF0.0
aF0.0
aF0.0
aF0.0
aF0.0
aF0.0
aF0.0
aF0.0
aF0.0
aF2.0394234657287598
aF0.0
aF0.0
aF0.0
aF0.4772564470767975
aF0.0
aF0.0
aF4.730615615844727
aF7.8300981521606445
aF0.0
aF0.0
aF9.219649314880371
aF0.0
aF0.0
aF0.0
aF0.0
aF0.0
aF0.0
aF0.0
aF0.0
aF0.0
aF0.0
aF0.0
aF0.0
aF0.0
aF0.0
aF0.0
aF5.682764053344727
aF0.0
aF7.897213935852051
aF0.0
aF0.0
aF0.0
aF0.0
aF1.6188585758209229
aF0.0
aF0.0
aF1.8893122673034668
aF0.0
aF0.0
aF0.0
aF0.0
aF0.0
aF0.0
aF0.0
aF0.0
aF0.0
aF0.0
aF13.999415397644043
aF0.0
aF0.0
aF5.094150543212891
aF16.536556243896484
aF0.0
aF5.664974212646484
aF0.0
aF0.0
aF0.0
aF2.9673895835876465
aF10.36035442352295
aF0.0
aF0.3309970200061798
aF0.0
aF0.0
aF0.0
aF4.513973712921143
aF0.0
aF0.0
aF0.0
aF0.0
aF0.0
aF0.0
aF0.0
aF0.0
aF0.0
aF0.0
aF6.423144817352295
aF0.0
aF0.0
aF0.0
aF10.830618858337402
aF0.0
aF0.0
aF0.9636809825897217
aF0.0
aF0.0
aF0.0
aF0.0
aF0.0
aF0.0
aF4.462400436401367
aF0.0
aF0.0
aF0.31613215804100037
aF0.0
aF0.0
aF0.08007952570915222
aF2.3839879035949707
aF0.0
aF0.0
aF0.0
aF0.0
aF0.0
aF5.707087993621826
aF0.0
aF5.381819725036621
aF0.0
aF0.0
aF0.0
aF0.0
aF0.0
aF0.0
aF0.0
aF0.0
aF5.751516819000244
aF0.0
aF6.136201858520508
aF0.0
aF0.0
aF0.0
aF0.2500764727592468
aF0.0
aF7.231629371643066
aF0.9990938305854797
aF0.0
aF0.0
aF6.945339202880859
aF8.256451606750488
aF0.0
aF6.085475444793701
aF0.49297839403152466
aF0.0
aF8.945086479187012
aF0.0
aF0.0
aF0.0
aF0.0
aF0.7065441012382507
aF0.0
aF0.0
aF0.0
asS'sample'
p10
S'HKG_001_a_0003 Aaron 71'
p11
sS'type'
p12
S'Right'
p13
sasS'HKG_001_a_0001'
p14
(lp15
(dp16
g4
Nsg5
I31
sg6
(lp17
I369
aI164
aI256
aI368
aF0.5810810732286341
aF0.3492063492063492
aF-0.9459459331628929
aF1.4285714285714286
asg8
(lp18
F0.0
aF5.440857887268066
aF0.0
aF0.0
aF0.0
aF0.0
aF0.0
aF0.0
aF0.0
aF0.0
aF0.0
aF18.57785987854004
aF0.0
aF0.0
aF0.0
aF5.323694705963135
aF0.0
aF0.0
aF0.0
aF0.0
aF0.0
aF0.0
aF0.0
aF0.0
aF0.0
aF0.0
aF0.0
aF0.0
aF0.0
aF0.0
aF0.0
aF0.0
aF0.0
aF0.0
aF0.0
aF0.0
aF0.0
aF1.8336783647537231
aF2.817699909210205
aF4.9963884353637695
aF0.0
aF14.674356460571289
aF0.6258931159973145
aF0.0
aF0.0
aF3.7295432090759277
aF0.0
aF0.0
aF0.0
aF0.0
aF0.0
aF0.0
aF4.636889934539795
aF0.0
aF0.0
aF16.555837631225586
aF0.0
aF0.0
aF0.0
aF11.711258888244629
aF0.0
aF15.57069206237793
aF0.0
aF18.13942527770996
aF0.0
aF0.0
aF0.0
aF0.0
aF0.0
aF0.0
aF0.0
aF8.272085189819336
aF0.0
aF0.0
aF0.0
aF0.0
aF0.0
aF1.5565545558929443
aF0.0
aF0.0
aF0.0
aF0.0
aF0.0
aF0.0
aF0.0
aF0.0
aF0.0
aF3.0812160968780518
aF0.0
aF0.0
aF10.819636344909668
aF0.0
aF5.01193380355835
aF0.0
aF11.07770824432373
aF0.0
aF0.0
aF0.0
aF0.0
aF0.14031293988227844
aF0.0
aF0.0
aF0.0
aF0.0
aF0.0
aF0.0
aF0.0
aF0.0
aF0.0
aF0.0
aF6.275423049926758
aF0.0
aF0.0
aF8.352994918823242
aF0.0
aF17.83035659790039
aF0.0
aF0.0
aF0.0
aF0.0
aF0.0
aF0.0
aF0.0
aF0.0
aF0.0
aF0.0
aF0.0
aF0.0
aF0.0
aF7.697216987609863
aF0.0
aF3.204880714416504
aF0.0
aF0.0
aF0.0
aF0.0
aF0.0
aF0.0
aF0.0
aF0.0
aF0.0
aF0.0
aF0.0
aF0.04597901925444603
aF0.0
aF0.0
aF0.0
aF0.0
aF0.0
aF0.0
aF0.0
aF0.0
aF0.0
aF0.0
aF4.193774223327637
aF0.0
aF5.047114849090576
aF0.0
aF0.0
aF0.0
aF8.84262752532959
aF0.0
aF0.0
aF0.0
aF0.0
aF0.0
aF0.0
aF0.0
aF0.0
aF0.6888429522514343
aF0.0
aF0.0
aF0.0
aF0.0
aF4.3024983406066895
aF0.0
aF0.0
aF0.0
aF0.0
aF0.0
aF0.0
aF0.0
aF0.0
aF0.0
aF0.0
aF0.0
aF0.0
aF0.0
aF0.0
aF0.0
aF0.0
aF0.0
aF0.0
aF10.063236236572266
aF0.0
aF0.0
aF0.0
aF0.0
aF0.0
aF0.0
aF0.0
aF0.0
aF0.0
aF14.356550216674805
aF0.0
aF0.0
aF1.5914642810821533
aF0.0
aF0.0
aF0.0
aF0.0
aF0.0
aF0.0
aF0.0
aF2.716193914413452
aF4.636360168457031
aF7.124682426452637
aF0.0
aF0.0
aF0.0
aF0.0
aF0.0
aF6.7848310470581055
aF0.0
aF0.0
aF0.0
aF0.0
aF0.0
aF0.0
aF0.0
aF0.0
aF0.0
aF0.0
aF0.0
aF0.0
aF0.0
aF0.0
aF0.0
aF0.0
aF0.0
aF0.0
aF0.0
aF0.0
aF0.0
aF0.0
aF0.0
aF0.0
aF0.0
aF0.0
aF0.0
aF0.0
aF0.0
aF0.0
aF0.0
aF0.0
aF0.0
aF0.0
aF0.0
aF0.0
aF0.0
aF0.0
aF0.0
aF0.0
aF0.0
aF0.0
aF17.849512100219727
aF0.0
aF1.579574465751648
aF0.0
aF0.0
aF0.0
aF0.8310096263885498
aF0.0
aF0.0
aF12.84300422668457
aF0.0
aF0.0
aF0.0
aF0.0
aF0.0
aF0.0
aF0.0
aF0.0
aF0.0
aF10.506561279296875
aF1.7466657161712646
aF0.0
aF0.0
aF0.0
aF0.0
aF0.0
aF1.0807889699935913
aF0.0
aF2.2140915393829346
aF1.8625667095184326
aF0.0
aF0.0
aF2.456590414047241
aF0.0
aF0.0
aF0.0
aF0.0
aF0.0
aF0.0
aF0.0
aF0.0
aF0.0
aF0.0
aF0.0
aF0.0
aF0.0
aF0.0
aF0.0
aF0.0
aF0.0
aF3.0422351360321045
aF0.0
aF2.241295337677002
aF0.0
aF0.0
aF0.0
aF21.184419631958008
aF0.0
aF0.0
aF0.0
aF0.0
aF0.0
aF0.0
aF0.0
aF10.063098907470703
aF0.0
aF0.0
aF0.0
aF0.0
aF0.0
aF0.0
aF4.083369255065918
aF4.121461391448975
aF0.0
aF0.0
aF0.0
aF4.035089492797852
aF0.0
aF0.0
aF1.5219299793243408
aF0.0
aF0.0
aF0.0
aF0.0
aF0.0
aF0.0
aF5.8065876960754395
aF0.0
aF0.0
aF0.0
aF10.859847068786621
aF0.0
aF0.0
aF0.0
aF0.0
aF0.0
aF0.0
aF0.6326214671134949
aF0.0
aF0.0
aF0.0
aF0.0
aF0.0
aF0.0
aF0.0
aF0.0
aF0.0
aF0.0
aF0.0
aF0.016604317352175713
aF0.0
aF0.0
aF0.0
aF0.0
aF0.0
aF0.0
aF0.0
aF0.0
aF0.0
aF0.0
aF0.0
aF10.692408561706543
aF0.0
aF0.0
aF0.0
aF0.0
aF0.0
aF0.0
aF0.0
aF0.0
aF0.0
aF0.0
aF0.0
aF0.0
aF0.0
aF0.0
aF0.0
aF0.0
aF0.0
aF0.0
aF0.0
aF0.0
aF0.0
aF0.0
aF0.0
aF3.978546619415283
aF0.0
aF0.0
aF9.428719520568848
aF5.264782905578613
aF0.0
aF0.0
aF4.469365119934082
aF0.0
aF19.495012283325195
aF0.0
aF0.0
aF0.0
aF0.0
aF0.0
aF5.1095991134643555
aF0.0
aF0.0
aF0.0
aF0.0
aF0.0
aF0.0
aF0.0
aF0.0
aF0.0
aF0.0
aF0.0
aF0.0
aF8.987268447875977
aF0.0
aF0.0
aF0.0
aF0.0
aF0.0
aF15.811749458312988
aF0.0
aF0.0
aF0.0
aF0.0
aF0.0
aF0.0
aF0.0
aF0.0
aF0.0
aF0.0
aF0.0
aF7.220450401306152
aF0.0
aF0.0
aF0.0
aF0.0
aF0.0
aF0.0
aF0.0
aF0.0
aF0.0
aF0.0
aF0.0
aF0.0
aF0.0
aF0.0
aF0.0
aF0.0
aF0.0
aF0.0
aF0.0
aF0.0
aF0.0
aF0.0
aF0.0
aF0.0
aF0.02067650482058525
aF6.584453105926514
aF12.08867073059082
aF0.0
aF0.0
aF3.2724716663360596
aF0.0
aF0.0
aF0.0
aF0.0
aF7.066903114318848
aF9.925591468811035
aF0.0
aF0.0
aF0.8984377980232239
aF0.0
aF0.0
aF0.0
aF0.0
asg10
S'HKG_001_a_0001 Aaron 11'
p19
sg12
g13
sasS'HKG_001_b_0037a'
p20
(lp21
(dp22
g4
(lp23
F0.0
aF0.0
aF0.0
aF16.404396057128906
aF11.416006088256836
aF0.0
aF0.0
aF0.0
aF0.0
aF0.0
aF0.0
aF6.792357921600342
aF0.0
aF0.0
aF0.0
aF0.0
aF0.0
aF0.0
aF0.0
aF0.0
aF0.0
aF0.0
aF7.74223518371582
aF0.0
aF0.0
aF5.712189197540283
aF0.0
aF6.413547039031982
aF0.0
aF0.0
aF0.0
aF0.0
aF0.0
aF0.0
aF0.0
aF9.461016654968262
aF0.0
aF0.0
aF0.0
aF4.596339702606201
aF0.0
aF1.8148083686828613
aF0.0
aF0.0
aF0.0
aF0.0
aF0.0
aF0.0
aF1.5319222211837769
aF0.0
aF0.0
aF0.0
aF2.3954362869262695
aF6.723948001861572
aF13.345399856567383
aF0.0
aF0.0
aF0.0
aF5.649979114532471
aF0.0
aF0.0
aF0.0
aF0.12704969942569733
aF0.0
aF9.314769744873047
aF0.0
aF0.0
aF0.0
aF0.0
aF4.627011299133301
aF0.0
aF1.9076298475265503
aF0.0
aF0.0
aF10.855835914611816
aF0.0
aF0.0
aF11.606653213500977
aF0.0
aF0.0
aF0.0
aF0.0
aF0.0
aF0.0
aF0.0
aF0.0
aF0.0
aF0.0
aF0.0
aF0.0
aF0.0
aF0.0
aF0.0
aF2.877153158187866
aF16.645509719848633
aF2.1704931259155273
aF0.0
aF0.0
aF0.4188278615474701
aF0.0
aF0.0
aF0.0
aF0.0
aF4.495265960693359
aF0.0
aF0.0
aF0.0
aF0.0
aF0.0
aF0.0
aF0.0
aF0.0
aF0.0
aF0.0
aF0.0
aF0.0
aF2.6162214279174805
aF0.0
aF0.0
aF0.0
aF0.520911455154419
aF0.0
aF0.0
aF0.0
aF0.0
aF0.0
aF0.0
aF5.8476243019104
aF0.0
aF6.619870662689209
aF0.0
aF0.0
aF0.0
aF0.0
aF0.0
aF0.0
aF0.0
aF0.0
aF0.0
aF0.0
aF0.0
aF0.0
aF0.0
aF0.0
aF7.195375919342041
aF18.835817337036133
aF0.0
aF0.0
aF0.0
aF0.0
aF0.0
aF0.0
aF0.0
aF0.0
aF0.2869144082069397
aF2.8357105255126953
aF8.226805686950684
aF7.66914176940918
aF0.0
aF0.0
aF0.0
aF0.0
aF0.0
aF0.0
aF0.0
aF0.5639682412147522
aF0.2565695345401764
aF0.0
aF0.0
aF0.0
aF0.0
aF11.61549186706543
aF21.619384765625
aF0.5374487042427063
aF0.0
aF0.0
aF0.0
aF0.0
aF0.8074098825454712
aF0.0
aF0.0
aF0.0
aF0.0
aF0.0
aF0.0
aF0.0
aF0.0
aF0.0
aF0.0
aF0.0
aF0.0
aF0.0
aF0.0
aF1.0553392171859741
aF0.0
aF0.0
aF0.0
aF0.0
aF0.0
aF9.617122650146484
aF10.634472846984863
aF0.0
aF0.0
aF4.78266716003418
aF0.0
aF0.0
aF0.0
aF2.5291244983673096
aF0.0
aF0.0
aF16.186500549316406
aF0.0
aF0.0
aF0.0
aF0.0
aF1.8187973499298096
aF0.0
aF1.7033605575561523
aF9.936760902404785
aF0.0
aF0.0
aF0.0
aF0.0
aF0.0
aF0.0
aF8.71371841430664
aF18.132307052612305
aF0.0
aF0.0
aF9.922038078308105
aF0.0
aF0.0
aF0.0
aF4.7145233154296875
aF0.0
aF17.770090103149414
aF0.0
aF3.8903417587280273
aF18.369525909423828
aF0.0
aF5.8909220695495605
aF0.0
aF0.0
aF0.0
aF15.73316764831543
aF0.0
aF3.463672161102295
aF8.08300495147705
aF0.7764574289321899
aF0.0
aF0.5915752053260803
aF0.0
aF0.0
aF5.618218898773193
aF0.0
aF0.0
aF0.0
aF0.0
aF0.003819879377260804
aF0.0
aF0.0
aF0.0
aF4.834228992462158
aF4.020537853240967
aF0.0
aF0.0
aF0.0
aF4.470663070678711
aF0.0
aF0.0
aF2.4194459915161133
aF0.0
aF0.0
aF0.0
aF0.0
aF0.0
aF0.0
aF0.0
aF0.0
aF0.0
aF8.510677337646484
aF0.0
aF0.0
aF8.673531532287598
aF0.0
aF7.981257438659668
aF0.0
aF0.0
aF0.0
aF0.0
aF4.3987908363342285
aF0.0
aF12.330406188964844
aF0.0
aF1.7804036140441895
aF7.207306385040283
aF0.0
aF25.246889114379883
aF0.0
aF25.460460662841797
aF0.0
aF0.0
aF0.0
aF0.0
aF0.0
aF0.0
aF0.0
aF0.0
aF0.0
aF5.751575946807861
aF0.0
aF0.0
aF0.0
aF0.0
aF0.0
aF0.0
aF0.0
aF0.0
aF0.0
aF0.0
aF0.0
aF0.0
aF0.0
aF0.0
aF20.019363403320312
aF0.0
aF0.0
aF0.0
aF0.0
aF0.0
aF0.0
aF0.0
aF1.024141550064087
aF8.974584579467773
aF0.0
aF0.0
aF0.0
aF16.35181999206543
aF0.0
aF0.0
aF0.0
aF1.097395658493042
aF0.0
aF0.0
aF2.7808666229248047
aF0.0
aF0.0
aF0.0
aF18.68061065673828
aF0.0
aF11.875505447387695
aF12.26140308380127
aF0.0
aF5.197183132171631
aF0.0
aF0.0
aF0.0
aF0.0
aF0.013375909999012947
aF0.0
aF0.06824061274528503
aF0.0
aF0.0
aF0.0
aF0.0
aF0.0
aF0.0
aF16.606197357177734
aF0.0
aF0.0
aF22.73785400390625
aF0.0
aF0.0
aF0.0
aF0.0
aF0.0
aF0.0
aF0.0
aF0.0
aF0.0
aF0.0
aF2.8904082775115967
aF10.031675338745117
aF0.0
aF0.0
aF0.0
aF0.0
aF0.0
aF1.1107956171035767
aF0.0
aF0.0
aF1.8491791486740112
aF12.483519554138184
aF0.0
aF1.9181091785430908
aF9.036420822143555
aF0.3356654644012451
aF0.0
aF0.0
aF16.397857666015625
aF0.0
aF0.0
aF0.0
aF0.0
aF0.0
aF0.0
aF0.0
aF7.174276828765869
aF0.0
aF0.0
aF0.0
aF7.382787704467773
aF0.0
aF3.653160333633423
aF0.0
aF6.161452770233154
aF0.0
aF0.0
aF0.0
aF0.0
aF0.0
aF0.0
aF6.864060401916504
aF0.0
aF0.0
aF0.0
aF0.0
aF7.426408290863037
aF0.0
aF4.567506790161133
aF0.0
aF0.0
aF0.0
aF1.7996612787246704
aF0.0
aF0.0
aF0.0
aF0.0
aF0.0
aF0.0
aF16.149385452270508
aF0.0
aF0.0
aF0.0
aF4.926058769226074
aF3.0126914978027344
aF0.0
aF0.0
aF10.21631908416748
aF0.0
aF0.0
aF20.10151481628418
aF0.0
aF0.0
aF0.0
aF0.8332430720329285
aF0.0
aF0.0
aF0.0
aF0.0
aF0.0
aF0.0
aF2.8308300971984863
aF0.0
aF0.0
aF0.980591356754303
aF0.0
aF0.0
aF2.9087462425231934
aF8.733153343200684
aF4.269906997680664
aF0.0
aF1.4000009298324585
aF12.877448081970215
aF0.0
aF0.0
aF0.0
aF21.53628921508789
aF0.0
aF0.0
aF0.0
aF2.8491034507751465
aF7.846943378448486
aF0.0
aF0.0
aF0.0
aF0.6876283288002014
aF7.72133207321167
aF0.0
aF0.0
aF0.0
aF3.8282527923583984
aF16.188669204711914
aF0.0
aF0.0
aF0.0
aF10.904789924621582
aF0.8887616395950317
aF0.0
aF0.0
asg5
I53
sg6
(lp24
I384
aI112
aI212
aI107
aF0.9340659238014734
aF0.06593406593406594
aF-0.9560439455379787
aF0.038461538461538464
asg8
(lp25
F0.0
aF9.885908126831055
aF0.0
aF0.0
aF12.737017631530762
aF0.0
aF0.0
aF0.0
aF3.8599483966827393
aF0.0
aF0.0
aF9.016156196594238
aF0.0
aF0.0
aF0.0
aF1.6405266523361206
aF0.0
aF0.0
aF22.6581974029541
aF0.0
aF0.0
aF0.0
aF0.0
aF0.0
aF0.0
aF0.0
aF0.0
aF0.0
aF0.07565572112798691
aF0.0
aF0.0
aF0.0
aF0.0
aF2.0460357666015625
aF0.0
aF0.0
aF0.0
aF7.905966281890869
aF0.0
aF0.0
aF0.0
aF11.601860046386719
aF0.0
aF0.0
aF0.0
aF0.0
aF2.809976816177368
aF0.0
aF8.316573143005371
aF0.0
aF9.79496955871582
aF0.0
aF0.0
aF0.0
aF7.989734649658203
aF1.477005124092102
aF14.477519035339355
aF0.0
aF0.0
aF2.3757877349853516
aF0.0
aF0.0
aF0.0
aF7.814866065979004
aF10.769272804260254
aF0.0
aF0.0
aF0.0
aF0.0
aF6.703366756439209
aF0.0
aF0.0
aF2.8101255893707275
aF0.0
aF0.0
aF0.797916054725647
aF0.0
aF11.160720825195312
aF0.0
aF0.0
aF0.0
aF0.0
aF0.0
aF0.0
aF0.0
aF0.0
aF0.0
aF0.0
aF0.0
aF0.0
aF0.0
aF0.0
aF0.0
aF9.556641578674316
aF0.0
aF8.12020492553711
aF0.0
aF0.0
aF0.0
aF1.4543014764785767
aF0.0
aF0.0
aF0.0
aF8.245279312133789
aF0.0
aF0.0
aF0.0
aF1.5550615787506104
aF0.0
aF0.0
aF0.0
aF0.0
aF0.0
aF4.262933254241943
aF0.0
aF0.0
aF0.0
aF0.0
aF0.0
aF0.0
aF0.0
aF0.0
aF0.0
aF0.0
aF0.0
aF0.0
aF0.0
aF8.436312675476074
aF0.0
aF0.4093294143676758
aF0.0
aF11.973662376403809
aF0.0
aF5.211732864379883
aF0.0
aF1.9367482662200928
aF0.0
aF0.0
aF0.0
aF5.06923246383667
aF0.0
aF0.0
aF0.0
aF2.2925074100494385
aF0.0
aF0.0
aF0.0
aF21.21034049987793
aF0.0
aF0.0
aF0.0
aF0.0
aF0.0
aF9.162142753601074
aF0.0
aF0.0
aF21.945337295532227
aF0.0
aF0.0
aF0.0
aF5.075953006744385
aF6.075319766998291
aF0.0
aF0.0
aF0.0
aF0.0
aF0.0
aF0.0
aF0.0
aF5.904996395111084
aF0.0
aF0.0
aF16.756914138793945
aF0.0
aF0.0
aF0.0
aF0.0
aF0.0
aF4.793929100036621
aF4.448530673980713
aF0.0
aF0.0
aF0.0
aF0.0
aF5.620118618011475
aF0.0
aF0.0
aF0.0
aF0.0
aF0.0
aF0.0
aF5.447018146514893
aF0.0
aF0.0
aF0.0
aF24.996694564819336
aF0.0
aF0.0
aF0.0
aF6.6597442626953125
aF0.0
aF0.0
aF0.0
aF0.8739457726478577
aF0.0
aF0.0
aF0.0
aF0.0
aF6.463037490844727
aF0.0
aF0.0
aF1.7375000715255737
aF0.0
aF0.0
aF0.0
aF3.6428656578063965
aF17.193634033203125
aF0.0
aF21.349166870117188
aF0.0
aF0.0
aF0.0
aF0.0
aF0.0
aF6.0027875900268555
aF5.124356269836426
aF8.443387031555176
aF0.0
aF0.0
aF0.0
aF4.279204845428467
aF0.0
aF0.0
aF17.678665161132812
aF0.0
aF4.9039740562438965
aF0.0
aF0.0
aF0.0
aF0.0
aF0.0
aF0.0
aF0.0
aF0.0
aF0.0
aF9.377187728881836
aF0.0
aF0.0
aF3.9045679569244385
aF0.0
aF0.0
aF8.909738540649414
aF0.0
aF0.0
aF10.556381225585938
aF0.0
aF6.691612720489502
aF0.0
aF0.0
aF5.215224266052246
aF0.0
aF1.3130019903182983
aF0.0
aF0.0
aF0.0
aF0.0
aF0.0
aF5.822483062744141
aF0.0
aF0.0
aF4.4021077156066895
aF0.0
aF2.1011369228363037
aF0.0
aF10.97818374633789
aF0.0
aF0.0
aF0.0
aF0.0
aF4.46724796295166
aF0.0
aF0.0
aF0.0
aF11.272639274597168
aF0.0
aF9.142030715942383
aF0.0
aF0.0
aF0.0
aF0.0
aF0.0
aF0.0
aF0.0
aF0.0
aF0.0
aF0.0
aF0.0
aF26.143802642822266
aF0.0
aF0.0
aF0.0
aF0.0
aF0.0
aF0.0
aF0.0
aF0.0
aF0.0
aF0.0
aF0.0
aF0.0
aF9.689064979553223
aF6.313416004180908
aF0.0
aF0.0
aF0.0
aF0.0
aF0.0
aF0.0
aF0.0
aF0.0
aF15.54456901550293
aF0.0
aF0.0
aF0.0
aF21.722871780395508
aF0.0
aF27.837053298950195
aF0.0
aF0.0
aF0.42525389790534973
aF0.0
aF0.0
aF3.1605427265167236
aF4.887009620666504
aF0.0
aF0.0
aF0.0
aF5.119847774505615
aF3.5814895629882812
aF10.682415962219238
aF0.0
aF7.684658527374268
aF0.0
aF0.0
aF0.0
aF0.23466117680072784
aF4.747585773468018
aF1.9945068359375
aF14.719170570373535
aF0.0
aF13.870455741882324
aF6.858211040496826
aF2.4391632080078125
aF0.0
aF0.0
aF0.9783518314361572
aF0.0
aF0.0
aF0.0
aF6.38933801651001
aF0.0
aF0.0
aF0.0
aF0.0
aF0.0
aF0.0
aF0.0
aF0.0
aF0.0
aF0.0
aF0.0
aF0.0
aF0.0
aF0.0
aF0.0
aF0.0
aF0.0
aF0.0
aF0.0
aF0.0
aF0.0
aF13.113811492919922
aF0.0
aF0.0
aF0.0
aF11.222723960876465
aF0.0
aF0.0
aF0.0
aF0.0
aF0.0
aF0.0
aF16.184289932250977
aF0.0
aF0.0
aF0.0
aF0.0
aF0.0
aF0.0
aF0.0
aF0.0
aF0.0
aF0.0
aF0.0
aF0.0
aF0.0
aF0.0
aF6.867985725402832
aF0.0
aF0.0
aF0.0
aF4.161543369293213
aF0.0
aF0.0
aF0.0
aF0.0
aF0.0
aF0.0
aF0.0
aF0.0
aF0.0
aF0.0
aF2.546663522720337
aF0.0
aF4.477705955505371
aF0.0
aF0.0
aF0.0
aF0.0
aF0.0
aF0.0
aF0.0
aF0.0
aF0.0
aF0.0
aF0.0
aF0.0
aF0.0
aF0.0
aF0.0
aF16.86963653564453
aF12.538276672363281
aF1.3935874700546265
aF0.0
aF0.0
aF0.0
aF0.0
aF0.0
aF6.52161979675293
aF8.309117317199707
aF0.0
aF0.0
aF0.0
aF0.0
aF0.0
aF0.0
aF0.0
aF0.0
aF2.057856321334839
aF0.0
aF0.0
aF0.0
aF8.171165466308594
aF0.0
aF5.437160968780518
aF0.0
aF0.0
aF0.0
aF0.0
aF0.0
aF0.0
aF0.0
aF0.0
aF26.029508590698242
aF0.0
aF0.0
aF0.0
aF0.0
aF0.0
aF17.30402374267578
aF0.0
aF0.0
aF0.0
aF0.0
aF0.1837083101272583
aF0.4181607961654663
aF0.0
aF0.0
aF26.501493453979492
aF14.72625732421875
aF0.0
aF0.0
aF0.0
aF0.3318295478820801
aF0.0
aF0.0
aF0.0
aF3.9696033000946045
aF0.0
aF0.0
asg10
S'HKG_001_b_0037a Aaron 831'
p26
sg12
S'Both'
p27
sasS'HKG_008_b_0020'
p28
(lp29
(dp30
g4
Nsg5
I67
sg6
(lp31
I333
aI219
aI333
aI219
aF-0.06862745030757401
aF0.6042780748663101
aF-0.06862745030757401
aF0.6042780748663101
asg8
(lp32
F0.0
aF0.0
aF0.0
aF11.188054084777832
aF0.0
aF6.251433849334717
aF0.0
aF7.431335926055908
aF3.885241985321045
aF8.796451568603516
aF0.0
aF0.0
aF0.1350110024213791
aF5.702823162078857
aF3.4915859699249268
aF1.165911078453064
aF2.5133466720581055
aF2.8931221961975098
aF1.9195998907089233
aF1.7985912561416626
aF2.949204444885254
aF0.0
aF3.3145201206207275
aF0.0
aF8.009190559387207
aF0.0
aF0.0
aF1.219987392425537
aF1.430270791053772
aF1.9744819402694702
aF4.900719165802002
aF0.0
aF0.0
aF0.0
aF5.884349346160889
aF0.0
aF2.6966235637664795
aF5.761914253234863
aF0.0
aF0.5840824842453003
aF5.110285758972168
aF0.0
aF0.0
aF2.4272236824035645
aF0.86146080493927
aF11.334409713745117
aF4.004125118255615
aF1.7910398244857788
aF1.8483014106750488
aF1.476317286491394
aF0.7253836989402771
aF11.04532241821289
aF12.798111915588379
aF3.12713623046875
aF0.0
aF1.8775811195373535
aF9.45367431640625
aF0.0
aF0.0
aF0.9457646012306213
aF0.0
aF0.0
aF1.8125215768814087
aF6.46602725982666
aF2.9270694255828857
aF0.0
aF0.0
aF9.361665725708008
aF2.1833913326263428
aF2.1317758560180664
aF5.0378098487854
aF0.0
aF0.0
aF11.782060623168945
aF8.607406616210938
aF7.228077411651611
aF4.661518096923828
aF8.3545503616333
aF0.0
aF2.7628681659698486
aF3.946314811706543
aF0.0
aF15.216191291809082
aF1.5673394203186035
aF4.421523094177246
aF0.0
aF3.561730146408081
aF5.476093769073486
aF4.736496925354004
aF0.12249842286109924
aF2.8239731788635254
aF1.8414127826690674
aF0.0
aF2.6940484046936035
aF0.0
aF0.0
aF4.8751373291015625
aF4.364971160888672
aF0.1419207900762558
aF8.827922821044922
aF0.0
aF4.8303022384643555
aF0.0
aF1.8455132246017456
aF0.0
aF0.0
aF0.0
aF5.7194366455078125
aF4.046485424041748
aF0.94688880443573
aF4.737105846405029
aF7.348864555358887
aF0.0
aF4.1397905349731445
aF13.509649276733398
aF0.0
aF0.0
aF0.6555042862892151
aF6.700139999389648
aF3.0169677734375
aF0.0
aF0.0
aF1.1096227169036865
aF2.8784801959991455
aF7.901865005493164
aF0.0
aF4.1587042808532715
aF0.0
aF0.0
aF3.9012222290039062
aF0.0
aF0.0
aF1.6370048522949219
aF0.0
aF5.780032157897949
aF0.0
aF6.847351551055908
aF8.454452514648438
aF2.512666940689087
aF0.0
aF1.821239709854126
aF3.9810900688171387
aF0.0
aF3.147092819213867
aF0.0
aF6.173771381378174
aF14.036227226257324
aF0.0
aF5.335901260375977
aF1.5500339269638062
aF0.0
aF1.1848427057266235
aF0.0
aF0.0
aF5.145549774169922
aF0.0
aF0.0
aF0.0
aF0.7725950479507446
aF0.0
aF0.0
aF14.054815292358398
aF2.574516534805298
aF0.0
aF0.0
aF8.465649604797363
aF2.092458963394165
aF3.9663400650024414
aF4.488811016082764
aF9.667815208435059
aF0.0
aF0.0
aF2.123426914215088
aF0.0
aF0.0
aF11.778149604797363
aF0.0
aF6.993249893188477
aF2.8861567974090576
aF3.3748536109924316
aF3.436845064163208
aF9.418702125549316
aF0.0
aF6.050398349761963
aF4.272787570953369
aF0.0
aF0.07869923859834671
aF0.0
aF5.715125560760498
aF0.0
aF0.0
aF0.0
aF5.135274887084961
aF6.56720495223999
aF1.3829200267791748
aF0.0
aF10.13657283782959
aF0.0
aF0.0
aF0.13898761570453644
aF6.702348709106445
aF3.315171718597412
aF5.972977638244629
aF6.7004289627075195
aF0.0
aF7.773628234863281
aF0.0
aF0.0
aF2.6195712089538574
aF0.0
aF3.8608875274658203
aF0.0
aF0.0
aF1.7475402355194092
aF1.4279179573059082
aF3.7216238975524902
aF1.192089557647705
aF0.9936437606811523
aF0.0
aF3.469182014465332
aF2.3708853721618652
aF18.18195915222168
aF0.5066722631454468
aF0.0
aF0.959703266620636
aF3.4595556259155273
aF0.0
aF3.9791171550750732
aF8.071106910705566
aF0.0
aF1.5308948755264282
aF2.735384464263916
aF3.661677837371826
aF7.8590569496154785
aF8.958207130432129
aF11.604432106018066
aF2.069087266921997
aF0.0
aF0.0
aF6.159709930419922
aF1.4446903467178345
aF5.511393070220947
aF6.061242580413818
aF0.0
aF0.3404369056224823
aF4.758503437042236
aF5.92055082321167
aF0.0
aF0.0
aF0.0
aF0.0
aF8.341543197631836
aF16.592674255371094
aF0.0
aF7.132528781890869
aF0.0
aF3.9089863300323486
aF0.0
aF3.124682664871216
aF0.0
aF5.190009593963623
aF8.346096992492676
aF0.0
aF4.822522163391113
aF0.0
aF0.0
aF0.0
aF9.331246376037598
aF4.93144416809082
aF2.297011375427246
aF0.0
aF0.8671619296073914
aF17.787273406982422
aF3.7890162467956543
aF0.0
aF7.503259658813477
aF7.30499792098999
aF0.0
aF18.661489486694336
aF3.7051408290863037
aF0.0
aF5.498284816741943
aF14.71023941040039
aF0.0
aF3.535346269607544
aF0.0
aF0.0
aF2.5189590454101562
aF0.0
aF0.13213053345680237
aF9.647631645202637
aF0.0
aF15.29629898071289
aF0.05683893337845802
aF0.0
aF0.0
aF0.0
aF0.0
aF0.0
aF3.926407814025879
aF0.0
aF0.6320141553878784
aF0.527086615562439
aF2.0055458545684814
aF8.2234468460083
aF2.3830180168151855
aF8.539979934692383
aF1.138161301612854
aF1.070800542831421
aF0.6639135479927063
aF0.0
aF9.439199447631836
aF0.0
aF0.0
aF2.559880256652832
aF19.3188533782959
aF0.0
aF0.0
aF1.8080241680145264
aF0.8836302161216736
aF3.555724620819092
aF0.0
aF4.108969211578369
aF5.418004035949707
aF8.527905464172363
aF0.0
aF0.0
aF1.4112030267715454
aF0.0
aF0.154612734913826
aF7.045989990234375
aF0.0
aF2.9466874599456787
aF0.0
aF0.0
aF6.405703544616699
aF0.0
aF0.0
aF0.0
aF10.362882614135742
aF0.0
aF0.0
aF0.0
aF5.353923320770264
aF22.153419494628906
aF1.5962560176849365
aF7.517841815948486
aF2.4339404106140137
aF0.16646067798137665
aF2.1719939708709717
aF8.424509048461914
aF6.873402118682861
aF0.0
aF0.0
aF2.842780828475952
aF1.8855124711990356
aF15.601978302001953
aF0.0
aF9.921371459960938
aF7.53865385055542
aF0.0
aF12.655411720275879
aF0.0
aF0.0
aF0.9025291204452515
aF2.9250617027282715
aF6.02418851852417
aF0.0
aF0.0
aF0.0
aF6.704219818115234
aF7.518287658691406
aF5.062737941741943
aF0.0
aF1.111795425415039
aF0.0
aF3.0353176593780518
aF7.178192615509033
aF0.0
aF0.0
aF7.981646537780762
aF0.7304773926734924
aF2.007643461227417
aF0.0
aF0.22343474626541138
aF0.0
aF0.0
aF8.19449234008789
aF11.118744850158691
aF0.0
aF0.0
aF3.1003878116607666
aF0.27985918521881104
aF6.869311332702637
aF0.0
aF2.1179745197296143
aF0.0
aF3.72664213180542
aF0.0
aF7.873127460479736
aF0.0
aF2.497177839279175
aF0.0
aF1.0876961946487427
aF0.0
aF0.0
aF0.0
aF0.0
aF0.0
aF3.9716262817382812
aF0.0
aF8.397232055664062
aF2.6762852668762207
aF0.0033518734853714705
aF0.0
aF1.0592173337936401
aF0.0
aF13.785920143127441
aF4.676149845123291
aF5.320822238922119
aF0.0
aF4.784485340118408
aF3.177474021911621
aF9.767388343811035
aF0.0
aF3.393608331680298
aF0.0
aF3.605088233947754
aF3.274372100830078
aF10.630921363830566
aF0.0
aF3.6602110862731934
aF3.275336503982544
aF1.4231436252593994
aF7.760372161865234
aF0.0
aF0.0
aF0.0
aF0.0
aF2.4861958026885986
aF2.1669764518737793
aF1.1406197547912598
aF1.4620821475982666
aF0.0
aF2.436075210571289
aF7.129805088043213
aF6.373973369598389
aF0.34102150797843933
aF4.708510875701904
aF0.0
aF0.0
aF5.574341297149658
aF0.0
aF0.6894028186798096
aF0.0
aF9.083353042602539
aF3.796374559402466
aF0.0
aF4.172948837280273
aF0.0
aF2.0997743606567383
aF0.0
aF3.52774977684021
aF1.2475953102111816
aF8.714383125305176
aF0.0
aF0.0
aF0.0
aF0.0
aF2.309401750564575
aF0.0
aF1.1345889568328857
aF7.895475387573242
aF1.2689602375030518
aF0.0
aF0.0
aF8.40930461883545
aF9.853081703186035
aF2.348102569580078
aF0.0
aF1.682691216468811
aF10.775749206542969
aF0.0
aF2.0122122764587402
aF8.66743278503418
aF17.01399040222168
aF0.0
aF5.0966997146606445
aF7.813389778137207
aF0.0
aF0.09729289263486862
aF0.7841055393218994
aF3.1892166137695312
aF0.0
aF0.0
aF9.648648262023926
aF0.0
aF10.201409339904785
aF0.0
aF0.0
asg10
S'HKG_008_b_0020 Micheal 63'
p33
sg12
S'Intersect'
p34
sasS'HKG_008_b_0017'
p35
(lp36
(dp37
g4
(lp38
F0.0
aF16.410198211669922
aF0.0
aF2.256795883178711
aF0.6816407442092896
aF0.0
aF0.0
aF0.0
aF0.0
aF0.0
aF0.0
aF0.0
aF0.0
aF0.0
aF10.666284561157227
aF0.8373058438301086
aF0.0
aF0.0
aF0.0
aF0.0
aF0.0
aF0.0
aF0.0
aF0.0
aF0.0
aF31.976722717285156
aF0.0
aF0.9883077144622803
aF0.0
aF0.0
aF0.0
aF0.0
aF0.0
aF0.0
aF0.0
aF0.0
aF0.0
aF0.0
aF5.84251070022583
aF2.8351759910583496
aF0.0
aF0.0
aF0.4116460680961609
aF0.0
aF0.0
aF0.0
aF0.0
aF0.0
aF1.4649465084075928
aF0.0
aF0.0
aF0.0
aF0.0
aF0.0
aF14.513054847717285
aF0.0
aF0.7661646604537964
aF0.0
aF9.459444046020508
aF0.0
aF0.0
aF0.0
aF0.0
aF0.0
aF11.186515808105469
aF0.0
aF0.0
aF0.0
aF0.3443038761615753
aF13.932747840881348
aF0.0
aF0.0
aF0.0
aF0.0
aF0.0
aF2.5015275478363037
aF0.0
aF0.0
aF0.0
aF0.0
aF0.0
aF0.0
aF0.0
aF0.0
aF0.0
aF0.0
aF0.0
aF0.0
aF0.0
aF0.0
aF4.710760593414307
aF0.0
aF0.0
aF11.016249656677246
aF29.469404220581055
aF1.1440815925598145
aF0.0
aF0.0
aF0.0
aF0.0
aF0.0
aF0.0
aF0.0
aF0.4743650555610657
aF0.0
aF0.0
aF0.0
aF0.0
aF0.0
aF0.0
aF0.0
aF0.0
aF0.0
aF0.0
aF0.0
aF0.0
aF1.7459934949874878
aF0.0
aF0.0
aF0.0
aF0.0
aF0.0
aF0.0
aF0.0
aF0.0
aF0.0
aF0.0
aF4.98857307434082
aF0.0
aF0.0
aF0.0
aF0.0
aF0.0
aF0.0
aF0.0
aF0.0
aF0.0
aF0.0
aF0.0
aF0.0
aF0.0
aF0.0
aF0.0
aF0.0
aF0.0
aF4.975712776184082
aF0.0
aF2.737813949584961
aF0.0
aF0.0
aF0.0
aF0.0
aF4.568828105926514
aF0.0
aF9.379977226257324
aF0.0
aF0.0
aF13.499786376953125
aF0.0
aF0.0
aF0.0
aF0.0
aF0.0
aF0.0
aF0.0
aF0.0
aF0.040035344660282135
aF0.0
aF0.0
aF0.0
aF0.0
aF11.609025001525879
aF0.0
aF0.0
aF0.0
aF0.0
aF7.729156970977783
aF0.0
aF0.0
aF0.0
aF0.0
aF0.0
aF0.0
aF0.0
aF0.0
aF0.0
aF0.0
aF0.0
aF0.0
aF8.89539623260498
aF0.0
aF0.0
aF0.0
aF5.470331192016602
aF0.0
aF0.0
aF17.036523818969727
aF0.0
aF0.0
aF0.0
aF0.0
aF0.0
aF0.0
aF4.920658588409424
aF0.0
aF0.0
aF1.154043436050415
aF0.0
aF0.0
aF0.0
aF0.0
aF0.0
aF0.0
aF0.0
aF0.0
aF9.937888145446777
aF0.0
aF10.847115516662598
aF0.0
aF0.0
aF0.0
aF0.0
aF4.192769527435303
aF0.0
aF2.5842037200927734
aF3.877321243286133
aF2.940924882888794
aF0.0
aF0.0
aF8.152570724487305
aF7.343408584594727
aF0.0
aF0.0
aF8.21350383758545
aF0.0
aF0.544532060623169
aF0.0
aF1.4246344566345215
aF15.412810325622559
aF0.627036988735199
aF1.6527836322784424
aF0.0
aF0.0
aF0.0
aF8.008244514465332
aF0.0
aF0.0
aF3.1233551502227783
aF3.3665428161621094
aF0.0
aF0.0
aF0.042107194662094116
aF0.0
aF0.0
aF0.0
aF0.0
aF0.0
aF0.0
aF0.0
aF0.0
aF0.725806713104248
aF0.0
aF0.0
aF5.873555660247803
aF0.0
aF0.0
aF0.0
aF2.489926338195801
aF7.940711975097656
aF0.0
aF8.979866981506348
aF0.0
aF0.0
aF0.0
aF0.0
aF0.0
aF0.0
aF0.0
aF0.0
aF0.0
aF13.3226957321167
aF0.0
aF0.0
aF0.0
aF0.0
aF0.0
aF0.0
aF0.0
aF0.0
aF0.0
aF6.074039459228516
aF0.0
aF7.192211151123047
aF15.67967414855957
aF6.591885089874268
aF7.20598840713501
aF0.0
aF19.038331985473633
aF0.0
aF0.0
aF0.21929500997066498
aF0.0
aF0.0
aF0.0
aF0.0
aF0.0
aF0.0
aF0.0
aF0.0
aF0.0
aF0.0
aF0.0
aF0.0
aF0.0
aF0.0
aF0.0
aF0.0
aF0.0
aF0.0
aF0.0
aF0.0
aF0.0
aF0.524262547492981
aF0.0
aF19.465618133544922
aF0.0
aF0.0
aF0.0
aF0.0
aF0.643442690372467
aF0.0
aF0.0
aF1.4939892292022705
aF4.565760612487793
aF0.0
aF0.0
aF1.6300873756408691
aF8.899168968200684
aF0.0
aF0.0
aF0.0
aF0.0
aF0.0
aF1.514552116394043
aF0.0
aF0.0
aF5.302143096923828
aF0.059727489948272705
aF12.212672233581543
aF0.0
aF6.641615867614746
aF18.44289207458496
aF2.7250843048095703
aF0.0
aF0.0
aF1.5314489603042603
aF0.0
aF0.0
aF0.0
aF0.0
aF0.0
aF0.0
aF0.0
aF0.0
aF0.0
aF0.0
aF0.0
aF0.0
aF0.0
aF0.0
aF0.0
aF0.0
aF14.784881591796875
aF0.0
aF0.0
aF0.0
aF0.0
aF0.0
aF0.0
aF0.0
aF0.0
aF0.0
aF0.0
aF0.0
aF0.0
aF5.186098575592041
aF0.0
aF0.0
aF0.2668687403202057
aF0.0
aF0.0
aF0.0
aF0.0
aF0.0
aF8.24236011505127
aF10.932393074035645
aF0.0
aF0.0
aF0.0
aF15.502310752868652
aF0.0
aF0.0
aF0.0
aF0.0
aF0.0
aF0.0
aF0.0
aF2.1871118545532227
aF0.0
aF0.0
aF2.9679157733917236
aF0.0
aF0.0
aF0.0
aF0.0
aF0.0
aF0.0
aF0.10426151752471924
aF0.0
aF0.0
aF0.0
aF0.0
aF4.557066917419434
aF0.0
aF0.0
aF14.232012748718262
aF2.97765851020813
aF0.0
aF0.0
aF0.0
aF0.0
aF0.0
aF0.0
aF0.0
aF0.0
aF0.0
aF0.0
aF0.0
aF0.0
aF0.0
aF5.139394760131836
aF9.388179779052734
aF0.0
aF0.0
aF3.8639140129089355
aF1.366049885749817
aF0.0
aF0.0
aF1.79384183883667
aF0.0
aF0.0
aF2.989431619644165
aF0.0
aF0.0
aF0.0
aF0.0
aF0.0
aF0.0
aF0.0
aF0.0
aF0.0
aF0.0
aF0.03253189101815224
aF0.0
aF0.0
aF0.0
aF0.0
aF4.014532566070557
aF0.0
aF0.0
aF0.0
aF0.0
aF0.0
aF8.446855545043945
aF0.0
aF0.0
aF0.0
aF19.17414665222168
aF0.0
aF0.0
aF0.0
aF0.0
aF4.060279846191406
aF0.0
aF0.0
aF0.0
aF0.0
aF11.644465446472168
aF0.0
aF0.0
aF0.0
aF16.986282348632812
aF17.042240142822266
aF0.0
aF0.0
aF0.0
aF12.809843063354492
aF0.0
aF8.556022644042969
aF0.0
asg5
I38
sg6
(lp39
I416
aI106
aI291
aI152
aF0.7523809452154195
aF0.005376344086021506
aF-0.43809523392290256
aF0.25268817204301075
asg8
(lp40
F0.0
aF0.0
aF0.0
aF1.85590660572052
aF0.0
aF2.291717290878296
aF0.0
aF0.0
aF0.04653618484735489
aF8.6071138381958
aF0.0
aF17.078792572021484
aF0.0
aF0.0
aF1.7049169540405273
aF0.0
aF0.0
aF0.0
aF0.0
aF0.0
aF0.0
aF0.0
aF1.3636668920516968
aF0.0
aF0.0
aF22.78752326965332
aF0.0
aF11.876930236816406
aF0.0
aF0.0
aF3.078390121459961
aF0.0
aF0.0
aF0.0
aF0.4773571789264679
aF22.143938064575195
aF0.0
aF0.0
aF15.050086975097656
aF5.282361030578613
aF0.0
aF0.0
aF0.0
aF0.0
aF0.0
aF0.0
aF0.0
aF8.901347160339355
aF20.503684997558594
aF0.0
aF0.0
aF2.495152235031128
aF0.0
aF0.0
aF8.969368934631348
aF0.0
aF0.0
aF0.0
aF0.0
aF4.409414291381836
aF0.0
aF0.0
aF0.0
aF1.9644501209259033
aF3.7829930782318115
aF0.0
aF0.0
aF0.0
aF0.0
aF6.076721668243408
aF0.0
aF7.038962364196777
aF14.598533630371094
aF6.737936496734619
aF6.407033920288086
aF3.2257120609283447
aF0.0
aF20.71526336669922
aF0.0
aF0.0
aF0.0
aF0.0
aF0.0
aF0.0
aF0.0
aF0.0
aF0.0
aF0.0
aF0.0
aF7.488330364227295
aF0.0
aF7.388950824737549
aF0.0
aF3.775913953781128
aF42.70052719116211
aF0.0
aF0.0
aF0.0
aF0.0
aF0.0
aF0.0
aF0.0
aF0.0
aF0.0
aF0.0
aF0.0
aF0.0
aF0.0
aF14.591041564941406
aF0.0
aF0.0
aF0.0
aF0.0
aF0.0
aF0.0
aF2.434506416320801
aF0.0
aF0.0
aF0.0
aF0.5053101181983948
aF0.0
aF0.0
aF0.0
aF7.042189121246338
aF0.0
aF0.0
aF0.0
aF0.0
aF0.0
aF0.0
aF0.0
aF4.616883277893066
aF0.0
aF0.0
aF0.0
aF20.571218490600586
aF0.0
aF0.0
aF0.0
aF0.0
aF0.0
aF2.0885367393493652
aF0.0
aF0.0
aF6.341923713684082
aF3.747161626815796
aF0.0
aF0.8847150206565857
aF0.11939994990825653
aF0.0
aF0.0
aF4.384562015533447
aF0.0
aF0.0
aF14.71684741973877
aF0.0
aF0.0
aF0.0
aF0.0
aF0.0
aF0.0
aF0.0
aF0.0
aF14.405920028686523
aF0.0
aF2.9226927757263184
aF0.0
aF0.0
aF1.6717005968093872
aF10.376985549926758
aF0.0
aF0.0
aF6.69271183013916
aF0.0
aF0.0
aF0.0
aF0.0
aF16.979598999023438
aF12.464996337890625
aF0.0
aF0.0
aF0.0
aF0.0
aF0.0
aF10.239425659179688
aF0.0
aF0.0
aF0.0
aF0.0
aF18.09109878540039
aF1.1470340490341187
aF0.0
aF0.0
aF0.0
aF0.0
aF0.0
aF3.6548452377319336
aF0.0
aF0.0
aF36.00651550292969
aF3.1457793712615967
aF0.0
aF0.0
aF1.3206828832626343
aF0.0
aF0.0
aF0.0
aF5.237224102020264
aF6.43259334564209
aF0.0
aF0.0
aF0.0
aF5.904275894165039
aF4.787051200866699
aF4.409062385559082
aF15.506044387817383
aF0.0
aF9.87594985961914
aF0.0
aF0.0
aF0.0
aF0.0
aF15.748003959655762
aF0.0
aF1.828113317489624
aF2.459557056427002
aF5.342586040496826
aF0.0
aF0.0
aF20.530540466308594
aF0.0
aF0.0
aF0.0
aF0.0
aF0.0
aF0.0
aF0.0
aF13.006353378295898
aF6.828294277191162
aF0.0
aF0.0
aF0.0
aF0.0
aF0.0
aF5.070976257324219
aF0.0
aF0.0
aF0.0
aF8.541482925415039
aF0.0
aF0.0
aF14.33541488647461
aF0.0
aF6.456626892089844
aF0.0
aF0.27807068824768066
aF24.343782424926758
aF0.0
aF0.0
aF0.0
aF0.0
aF0.0
aF0.0
aF12.475179672241211
aF11.956628799438477
aF12.70361328125
aF0.0
aF8.116386413574219
aF0.0
aF0.0
aF14.843681335449219
aF0.0
aF0.0
aF8.416182518005371
aF0.0
aF1.3179993629455566
aF1.4692842960357666
aF0.0
aF0.0
aF0.0
aF6.6572651863098145
aF0.0
aF0.0
aF1.0752016305923462
aF0.0
aF0.0
aF0.0
aF10.062407493591309
aF0.0
aF0.0
aF0.0
aF0.0
aF1.695103406906128
aF30.45298194885254
aF0.0
aF20.393991470336914
aF0.0
aF19.71238899230957
aF0.0
aF0.0
aF10.343430519104004
aF0.0
aF0.0
aF0.0
aF0.0
aF4.154997825622559
aF0.0
aF0.0
aF0.0
aF5.86952543258667
aF0.0
aF0.0
aF0.0
aF0.0
aF0.0
aF0.0
aF0.0
aF0.0
aF0.0
aF0.0
aF0.0
aF0.0
aF0.0
aF0.0
aF18.00978660583496
aF0.0
aF0.0
aF0.0
aF0.0
aF1.6249436140060425
aF7.79559850692749
aF0.0
aF2.431486129760742
aF0.0
aF0.0
aF0.0
aF10.504806518554688
aF4.174621105194092
aF0.0
aF0.0
aF0.0
aF5.45123291015625
aF0.0
aF7.494100570678711
aF0.0
aF4.051835060119629
aF15.04967975616455
aF3.1141233444213867
aF18.082435607910156
aF5.253840446472168
aF7.644824981689453
aF0.0
aF0.0
aF0.0
aF0.0
aF27.5793514251709
aF0.0
aF0.0
aF0.17884965240955353
aF0.0
aF7.126892566680908
aF3.9130642414093018
aF0.0
aF0.08908180147409439
aF0.0
aF0.0
aF0.0
aF0.0
aF0.0
aF4.2963128089904785
aF0.1985194981098175
aF0.0
aF13.545743942260742
aF0.0
aF0.0
aF0.0
aF0.41838207840919495
aF0.0
aF0.0
aF0.0
aF30.725563049316406
aF13.042142868041992
aF0.0
aF0.0
aF11.965940475463867
aF13.39235782623291
aF0.0
aF0.0
aF0.0
aF0.027417315170168877
aF0.0
aF7.735113143920898
aF0.0
aF0.0
aF0.0
aF0.0
aF11.796645164489746
aF8.925618171691895
aF0.0
aF17.722795486450195
aF9.01117992401123
aF0.0
aF0.0
aF0.0
aF0.0
aF0.0
aF0.0
aF0.0
aF0.0
aF0.0
aF13.142339706420898
aF0.7116624116897583
aF0.0
aF46.54555130004883
aF0.0
aF22.443252563476562
aF0.0
aF0.0
aF0.0
aF0.0
aF0.0
aF0.0
aF0.0
aF0.0
aF4.4588775634765625
aF2.981715679168701
aF0.0
aF7.413269519805908
aF0.0
aF9.490900039672852
aF0.0
aF0.8836089968681335
aF15.521740913391113
aF0.0
aF0.0
aF13.618850708007812
aF0.0
aF0.0
aF13.72555923461914
aF0.0
aF8.96529483795166
aF7.093050003051758
aF0.0
aF0.0
aF0.3445809781551361
aF8.390996932983398
aF0.0
aF0.0
aF0.0
aF0.0
aF0.0
aF0.0
aF0.0
aF0.0
aF21.509401321411133
aF4.092192649841309
aF0.0
aF2.2714993953704834
aF0.0
aF0.0
aF0.0
aF0.0
aF11.337904930114746
aF0.0
aF0.0
aF1.0612797737121582
aF0.0
aF0.0
aF0.0
aF0.0
aF8.412346839904785
aF0.0
aF0.0
aF0.0
aF0.0
aF0.0
aF1.8728605508804321
aF23.78120994567871
aF0.0
aF0.0
aF0.0
aF5.092700004577637
aF15.845264434814453
aF0.0
aF0.0
aF0.0
aF0.0
aF0.0
aF0.0
aF0.0
aF0.0
aF10.757776260375977
aF16.748180389404297
aF0.0
aF0.0
aF0.0
aF16.075321197509766
aF0.0
aF0.0
aF0.007735110819339752
asg10
S'HKG_008_b_0017 Micheal 11'
p41
sg12
g27
sa(dp42
g4
(lp43
F0.0
aF11.820945739746094
aF0.0
aF1.0378892421722412
aF0.0
aF20.907211303710938
aF0.0
aF0.0
aF2.531646728515625
aF8.384163856506348
aF0.0
aF0.0
aF0.0
aF0.0
aF16.342924118041992
aF0.0
aF0.0
aF0.0
aF22.070249557495117
aF0.16922584176063538
aF0.0
aF5.2226691246032715
aF0.31244251132011414
aF0.0
aF0.0
aF25.29450225830078
aF0.0
aF0.6788809895515442
aF0.8072026371955872
aF0.0
aF18.599218368530273
aF0.0
aF0.7467331886291504
aF0.0
aF10.407333374023438
aF4.611631393432617
aF0.0
aF0.0
aF0.0
aF0.0
aF12.378085136413574
aF0.0
aF0.0
aF0.0
aF0.0
aF0.0
aF0.0
aF12.845425605773926
aF19.406951904296875
aF0.0
aF0.0
aF4.956472396850586
aF0.0
aF0.0
aF10.20815372467041
aF0.0
aF0.0
aF0.0
aF0.0
aF10.740333557128906
aF0.0
aF0.0
aF0.0
aF2.0404000282287598
aF1.0178920030593872
aF0.6480697989463806
aF0.0
aF0.0
aF8.116074562072754
aF14.714093208312988
aF0.0
aF0.0
aF0.0
aF0.0
aF0.0
aF4.953907489776611
aF0.0
aF9.258146286010742
aF0.0
aF0.0
aF11.48176097869873
aF0.0
aF0.0
aF0.0
aF0.0
aF0.0
aF0.0
aF0.0
aF0.0
aF0.0
aF0.0
aF5.7123308181762695
aF0.0
aF25.533103942871094
aF25.89756202697754
aF2.449735641479492
aF0.0
aF0.0
aF0.0
aF0.5363392233848572
aF0.0
aF0.0
aF0.0
aF7.903822898864746
aF0.0
aF0.0
aF0.0
aF0.0
aF2.53163743019104
aF0.0
aF0.0
aF0.0
aF0.0
aF0.0
aF0.0
aF0.0
aF14.3246488571167
aF0.0
aF0.0
aF0.0
aF0.0
aF2.698228597640991
aF0.0
aF24.81598472595215
aF0.0
aF0.0
aF0.0
aF1.8148820400238037
aF0.0
aF9.66034984588623
aF0.0
aF0.0
aF0.0
aF42.16567611694336
aF0.0
aF13.697827339172363
aF0.4755403697490692
aF0.0
aF0.0
aF0.0
aF0.0
aF4.778385162353516
aF0.0
aF15.087980270385742
aF0.0
aF0.0
aF0.0
aF0.2191474884748459
aF0.0
aF0.0
aF2.9675583839416504
aF2.563220977783203
aF5.6205644607543945
aF0.0
aF2.58120059967041
aF0.0
aF0.0
aF10.123395919799805
aF0.0
aF0.925229012966156
aF10.280952453613281
aF0.0
aF0.0
aF17.449207305908203
aF0.0
aF0.0
aF0.0
aF0.0
aF0.0
aF13.563520431518555
aF0.0
aF6.042625427246094
aF0.0
aF0.0
aF12.043280601501465
aF0.0
aF0.027544286102056503
aF0.0
aF8.731536865234375
aF0.0
aF0.0
aF0.0
aF0.0
aF0.0
aF18.383087158203125
aF0.0
aF0.0
aF0.0
aF0.0
aF6.131495952606201
aF0.0
aF0.0
aF0.0
aF1.0302095413208008
aF0.0
aF20.293914794921875
aF2.505939245223999
aF4.005247592926025
aF0.0
aF1.150613784790039
aF0.0
aF0.0
aF0.0
aF8.523674964904785
aF0.0
aF0.0
aF0.0
aF0.0
aF8.969475746154785
aF0.0
aF0.0
aF0.0
aF9.04439640045166
aF20.215778350830078
aF0.0
aF0.49203264713287354
aF0.0
aF22.692564010620117
aF0.0
aF0.0
aF0.0
aF0.0
aF4.5943169593811035
aF0.0
aF12.8761568069458
aF0.0
aF4.392020225524902
aF0.0
aF0.0
aF9.72727108001709
aF27.092796325683594
aF0.0
aF0.0
aF0.0
aF0.0
aF0.0
aF0.0
aF8.813050270080566
aF5.466640472412109
aF10.023412704467773
aF0.0
aF1.3682639598846436
aF0.0
aF0.0
aF0.0
aF0.0
aF1.861785888671875
aF0.0
aF19.823577880859375
aF1.9109011888504028
aF0.0
aF13.74974536895752
aF0.0
aF16.28791618347168
aF0.0
aF0.0
aF2.371774435043335
aF0.0
aF12.292865753173828
aF13.243767738342285
aF4.512942314147949
aF0.0
aF3.113748550415039
aF12.233548164367676
aF25.116212844848633
aF0.0
aF17.90094757080078
aF0.0
aF9.445697784423828
aF0.0
aF5.051795959472656
aF0.0
aF1.902292251586914
aF6.4676361083984375
aF0.0
aF0.8967881798744202
aF0.0
aF0.0
aF0.0
aF0.0
aF11.431836128234863
aF0.0
aF0.0
aF2.3679308891296387
aF0.0
aF0.0
aF0.0
aF14.367716789245605
aF15.160902976989746
aF0.0
aF9.293033599853516
aF0.0
aF9.483675956726074
aF0.0
aF0.0
aF6.266918659210205
aF0.0
aF1.4145689010620117
aF0.0
aF0.0
aF11.388467788696289
aF0.0
aF0.0
aF0.0
aF0.0
aF12.459101676940918
aF0.0
aF0.0
aF0.0
aF0.0
aF5.886569499969482
aF16.133607864379883
aF0.0
aF0.0
aF0.0
aF0.0
aF0.0
aF7.032402515411377
aF0.0
aF0.0
aF11.762136459350586
aF0.0
aF0.6345849633216858
aF0.0
aF11.134272575378418
aF0.0
aF7.9311442375183105
aF0.0
aF0.0
aF0.0
aF0.0
aF0.0
aF12.180368423461914
aF2.8750386238098145
aF0.0
aF0.0
aF1.5651029348373413
aF1.0496655702590942
aF5.328611850738525
aF7.06190824508667
aF0.0
aF0.0
aF0.0
aF10.95083999633789
aF0.0
aF0.0
aF18.00638771057129
aF0.0
aF4.993044853210449
aF5.3402323722839355
aF3.6817429065704346
aF3.3276007175445557
aF7.751500606536865
aF10.462223052978516
aF0.0
aF0.0
aF0.0
aF0.0
aF0.0
aF9.597137451171875
aF0.0
aF5.232831001281738
aF0.0
aF0.0
aF0.0
aF0.0
aF0.0
aF3.7920336723327637
aF0.0
aF0.7478055953979492
aF0.0
aF0.0
aF20.298187255859375
aF0.0
aF0.0
aF0.0
aF0.0
aF0.0
aF0.0
aF0.0
aF0.0
aF0.0
aF0.0
aF0.0
aF6.762350559234619
aF5.043428421020508
aF0.0
aF0.0
aF0.2726317346096039
aF0.0
aF0.0
aF0.0
aF8.215243339538574
aF0.0
aF3.6620287895202637
aF0.0
aF0.0
aF9.926000595092773
aF0.0
aF23.301437377929688
aF2.4604973793029785
aF0.0
aF0.0
aF0.0
aF0.0
aF0.0
aF0.0
aF0.0
aF0.0
aF0.0
aF0.0
aF2.7085189819335938
aF0.0
aF0.0
aF0.0
aF4.094428062438965
aF0.0
aF0.0
aF3.107686758041382
aF0.0
aF0.0
aF0.0
aF7.269617080688477
aF0.0
aF0.0
aF3.1878416538238525
aF17.851064682006836
aF0.0
aF3.8464739322662354
aF16.893831253051758
aF0.0
aF6.419790267944336
aF15.717644691467285
aF0.0
aF0.0
aF0.0
aF0.0
aF0.0
aF0.0
aF0.0
aF0.0
aF11.28818130493164
aF0.0
aF0.0
aF0.0
aF10.400710105895996
aF0.0
aF0.0
aF0.0
aF0.0
aF0.0
aF5.805564880371094
aF0.0
aF0.0
aF0.0
aF0.0
aF0.0
aF0.0
aF27.568092346191406
aF0.0
aF0.0
aF0.0
aF0.0
aF1.1385173797607422
aF0.0
aF0.0
aF0.9920359253883362
aF12.89065933227539
aF5.582488059997559
aF0.0
aF0.0
aF0.0
aF5.1588454246521
aF6.703493595123291
aF0.0
aF0.0
aF0.0
aF0.0
aF0.37674516439437866
aF0.0
aF0.0
aF0.0
aF0.0
aF0.0
aF0.0
aF0.0
aF0.0
aF17.66436195373535
aF0.0
aF0.0
aF0.0
aF0.0
aF5.253447532653809
aF0.0
aF0.0
aF0.0
aF0.0
aF4.082880020141602
aF0.0
aF0.0
asg5
I46
sg6
(lp44
I381
aI161
aI271
aI93
aF0.4190476150566894
aF0.3010752688172043
aF-0.6285714225850341
aF-0.06451612903225806
asg8
(lp45
F0.0
aF0.0
aF0.0
aF23.33391761779785
aF1.869667410850525
aF0.0
aF3.5613906383514404
aF0.0
aF1.0167138576507568
aF0.0
aF0.0
aF3.0570781230926514
aF0.0
aF0.0
aF9.459757804870605
aF0.0
aF0.06662395596504211
aF0.0
aF0.0
aF0.0
aF0.0
aF0.0
aF9.437491416931152
aF0.0
aF0.0
aF34.59418869018555
aF0.0
aF17.115177154541016
aF0.0
aF0.0
aF12.13514518737793
aF0.0
aF13.398823738098145
aF0.0
aF0.0
aF8.391260147094727
aF0.0
aF0.0
aF0.0
aF0.0
aF0.0
aF0.0
aF0.0
aF0.0
aF0.0
aF0.0
aF0.0
aF12.656717300415039
aF11.543045043945312
aF0.0
aF0.0
aF0.0
aF0.0
aF0.0
aF21.346994400024414
aF0.0
aF0.0
aF0.0
aF0.0
aF0.0
aF0.0
aF0.0
aF0.0
aF9.65176773071289
aF0.0
aF0.0
aF0.0
aF0.0
aF0.0
aF0.0
aF0.0
aF1.30702805519104
aF0.0
aF0.5792096257209778
aF6.6598801612854
aF8.501684188842773
aF0.0
aF29.089689254760742
aF0.0
aF0.24060040712356567
aF0.0
aF0.0
aF0.0
aF0.0
aF0.0
aF0.0
aF0.0
aF0.0
aF0.0
aF0.0
aF0.0
aF0.0
aF0.0
aF0.0
aF36.597103118896484
aF0.0
aF0.0
aF0.0
aF0.9394228458404541
aF0.0
aF0.0
aF6.641491413116455
aF0.0
aF4.175940990447998
aF1.658621907234192
aF0.0
aF0.0
aF0.0
aF0.0
aF0.0
aF0.0
aF0.0
aF0.0
aF0.0
aF0.0
aF0.0
aF0.0
aF0.0
aF0.0
aF0.0
aF0.0
aF0.0
aF0.0
aF14.027658462524414
aF0.0
aF0.0
aF24.89452362060547
aF4.201672077178955
aF0.0
aF0.0
aF0.0
aF9.72409725189209
aF0.0
aF0.0
aF0.0
aF10.309981346130371
aF0.0
aF0.0
aF0.0
aF0.0
aF0.0
aF0.0
aF0.0
aF3.81644868850708
aF0.0
aF0.7225132584571838
aF0.0
aF0.0
aF0.0
aF4.53939962387085
aF0.0
aF0.9228556156158447
aF0.0
aF0.0
aF0.0
aF0.0
aF0.0
aF3.9880030155181885
aF0.0
aF0.0
aF9.00495433807373
aF0.0
aF0.0
aF0.0
aF0.0
aF0.8651852607727051
aF0.0
aF0.0
aF0.0005067813908681273
aF0.0
aF0.0
aF0.0
aF5.845669269561768
aF0.42533159255981445
aF0.0
aF0.0
aF0.0
aF0.0
aF23.431013107299805
aF0.0
aF0.0
aF0.0
aF0.0
aF0.0
aF11.890788078308105
aF0.0
aF0.0
aF0.0
aF0.0
aF23.5526123046875
aF0.0
aF0.0
aF0.0
aF10.780216217041016
aF0.0
aF0.0
aF0.0
aF0.0
aF0.0
aF0.0
aF0.0
aF0.0
aF0.0
aF0.0
aF0.0
aF0.0
aF0.0
aF8.055315971374512
aF12.558259963989258
aF0.0
aF0.0
aF0.0
aF0.0
aF16.51726722717285
aF4.7747931480407715
aF0.0
aF0.0
aF0.0
aF0.0
aF0.0
aF0.0
aF2.1926989555358887
aF0.0
aF6.540021896362305
aF10.30039119720459
aF0.0
aF0.0
aF0.0
aF0.0
aF4.919521331787109
aF17.154460906982422
aF0.0
aF0.0
aF0.0
aF0.0
aF2.5910451412200928
aF1.0844390392303467
aF15.317407608032227
aF18.846254348754883
aF0.029432334005832672
aF0.0
aF0.0
aF0.0
aF0.0
aF6.276331424713135
aF0.0
aF0.0
aF0.0
aF11.040534973144531
aF0.0
aF4.343924045562744
aF14.664664268493652
aF0.0
aF9.675724029541016
aF0.0
aF0.0
aF0.0
aF0.0
aF9.830336570739746
aF0.0
aF14.208309173583984
aF0.0
aF5.691695213317871
aF13.214248657226562
aF7.828802585601807
aF0.0
aF0.0
aF0.0
aF11.225323677062988
aF0.0
aF21.235759735107422
aF0.0
aF0.0
aF0.0
aF0.0
aF2.1536037921905518
aF0.0
aF0.0
aF0.0
aF0.0
aF0.0
aF0.0
aF0.0
aF0.0
aF0.0
aF0.0
aF0.0
aF14.942047119140625
aF7.73151159286499
aF0.0
aF4.430768013000488
aF0.0
aF0.0
aF0.0
aF0.0
aF15.274189949035645
aF0.0
aF14.78747272491455
aF0.0
aF13.520298957824707
aF1.5108174085617065
aF0.0
aF0.0
aF0.0
aF0.0
aF0.0
aF0.0
aF0.0
aF0.0
aF5.507379531860352
aF0.0
aF0.0
aF0.0
aF0.0
aF0.0
aF0.0
aF0.0
aF0.0
aF0.0
aF0.0
aF0.0
aF0.0
aF0.0
aF0.0
aF1.0453435182571411
aF0.0
aF0.0
aF10.523061752319336
aF0.0
aF0.0
aF0.0
aF0.0
aF5.841187953948975
aF6.5513505935668945
aF0.0
aF0.0
aF0.0
aF11.505027770996094
aF0.0
aF3.0897417068481445
aF0.0
aF0.0
aF0.0
aF6.604618072509766
aF0.0
aF0.0
aF4.4625444412231445
aF0.0
aF6.123907566070557
aF21.211427688598633
aF5.051009654998779
aF0.0
aF0.0
aF15.155949592590332
aF0.0
aF5.074467658996582
aF0.0
aF0.0
aF0.0
aF0.0
aF4.630669593811035
aF0.0
aF4.695022106170654
aF1.1885820627212524
aF0.0
aF0.0
aF0.0
aF21.473886489868164
aF0.0
aF0.0
aF23.30901527404785
aF0.0
aF17.90568733215332
aF0.0
aF0.0
aF0.0
aF0.0
aF0.0
aF0.0
aF0.0
aF9.390392303466797
aF0.0
aF0.0
aF0.0
aF0.0
aF0.0
aF10.836816787719727
aF0.25138044357299805
aF25.454139709472656
aF0.0
aF0.0
aF6.018086910247803
aF24.673877716064453
aF0.0
aF3.496960401535034
aF0.0
aF5.746458530426025
aF0.0
aF0.0
aF7.555502414703369
aF26.34682846069336
aF0.0
aF0.0
aF0.0
aF0.0
aF0.0
aF0.0
aF0.0
aF0.0
aF0.0
aF0.0
aF15.826984405517578
aF0.0
aF29.548982620239258
aF0.0
aF0.0
aF0.0
aF0.0
aF0.0
aF0.0
aF0.0
aF0.0
aF0.0
aF0.0
aF0.0
aF8.834240913391113
aF32.90239715576172
aF5.57585334777832
aF0.0
aF0.0
aF0.0
aF0.0
aF8.916877746582031
aF3.4170520305633545
aF0.0
aF29.13821029663086
aF4.595118999481201
aF0.0
aF0.0
aF0.14469310641288757
aF0.0
aF0.0
aF0.0
aF0.0
aF2.2936887741088867
aF34.21736526489258
aF3.0316340923309326
aF0.0
aF10.503639221191406
aF0.0
aF0.0
aF0.0
aF0.0
aF0.0
aF16.62933349609375
aF3.934990882873535
aF0.0
aF0.0
aF15.337924003601074
aF0.0
aF0.0
aF0.0
aF0.0
aF0.0
aF0.0
aF0.0
aF0.0
aF0.0
aF3.3787827491760254
aF0.0
aF4.3849945068359375
aF0.0
aF0.0
aF1.8326276540756226
aF0.0
aF0.7102184891700745
aF0.0
aF6.2035932540893555
aF10.155123710632324
aF0.0
aF0.0
aF7.329528331756592
aF17.233251571655273
aF0.0
aF0.0
aF0.0
aF22.123567581176758
aF0.0
aF0.0
aF0.0
aF0.0
aF0.3773024380207062
aF0.6445698738098145
aF1.8791842460632324
aF0.0
aF0.0
aF0.014731844887137413
aF0.0
aF0.0
aF0.0
asg10
g41
sg12
g27
sa(dp46
g4
(lp47
F0.0
aF0.0
aF0.0
aF0.0
aF2.8424179553985596
aF0.0
aF4.229890823364258
aF0.0
aF0.0
aF9.357284545898438
aF0.0
aF0.0
aF0.0
aF16.7305850982666
aF0.0
aF0.0
aF0.0
aF0.0
aF0.0
aF0.0
aF0.0
aF0.0
aF0.0
aF0.0
aF0.0
aF19.000459671020508
aF0.0
aF0.0
aF0.0
aF0.0
aF0.0
aF0.0
aF4.733902454376221
aF0.0
aF12.206043243408203
aF0.0
aF0.0
aF0.0
aF4.744187355041504
aF0.0
aF0.0
aF0.0
aF0.0
aF0.0
aF0.0
aF16.640522003173828
aF0.0
aF15.412394523620605
aF7.0025105476379395
aF0.0
aF0.0
aF0.0
aF0.0
aF1.2621142864227295
aF0.0
aF0.0
aF0.0
aF0.0
aF0.0
aF0.0
aF0.0
aF0.0
aF1.539154291152954
aF0.0
aF20.899845123291016
aF1.395315408706665
aF0.0
aF12.30745792388916
aF0.0
aF0.0
aF0.0
aF8.465185165405273
aF1.6959383487701416
aF1.284271478652954
aF0.0
aF1.2376415729522705
aF0.0
aF0.0
aF0.0
aF0.0
aF9.689248085021973
aF0.0
aF0.0
aF0.0
aF0.0
aF0.0
aF1.8366676568984985
aF0.0
aF0.0
aF0.0
aF8.90185260772705
aF0.0
aF10.109847068786621
aF1.0185617208480835
aF34.92343521118164
aF0.0
aF0.0
aF0.0
aF0.0
aF0.0
aF0.0
aF0.0
aF0.0
aF6.9854736328125
aF3.554579734802246
aF0.0
aF0.2595365643501282
aF0.0
aF12.316043853759766
aF0.0
aF0.0
aF0.0
aF0.0
aF0.0
aF0.0
aF1.7588618993759155
aF0.0
aF0.0
aF0.0
aF1.2895597219467163
aF0.0
aF0.0
aF0.0
aF0.0
aF0.0
aF0.0
aF0.0
aF0.0
aF0.0
aF0.0
aF0.0
aF0.0
aF0.8080898523330688
aF0.0
aF0.0
aF0.0
aF10.925524711608887
aF0.0
aF8.26844310760498
aF0.0
aF0.0
aF0.0
aF0.0
aF1.2965502738952637
aF0.0
aF24.825773239135742
aF0.0
aF0.0
aF0.0
aF0.0
aF6.66264533996582
aF0.0
aF13.712776184082031
aF10.26052188873291
aF0.0
aF0.0
aF0.0
aF1.6157759428024292
aF0.0
aF0.0
aF0.0
aF9.837803840637207
aF0.0
aF0.0
aF0.0
aF0.0
aF0.0
aF6.05668830871582
aF3.5585577487945557
aF0.0
aF0.0
aF0.0
aF0.0
aF0.0
aF2.4997010231018066
aF0.2493140697479248
aF25.025907516479492
aF0.0
aF0.0
aF15.057307243347168
aF3.892659902572632
aF0.0
aF0.0
aF0.0
aF1.3782973289489746
aF0.0
aF0.0
aF0.0
aF0.38098883628845215
aF24.72019386291504
aF7.952398300170898
aF0.0
aF0.0
aF0.0
aF0.0
aF0.0
aF15.361776351928711
aF2.3387186527252197
aF0.0
aF0.0
aF1.4407453536987305
aF0.0
aF5.888891220092773
aF0.0
aF0.0
aF0.0
aF0.0
aF0.0
aF0.0
aF0.0
aF0.0
aF0.0
aF0.0
aF3.354687213897705
aF0.0
aF7.7448015213012695
aF0.0
aF12.935033798217773
aF0.0
aF0.0
aF0.0
aF0.0
aF15.699960708618164
aF0.0
aF0.0
aF0.0
aF0.0
aF0.0
aF0.0
aF9.304719924926758
aF5.961830139160156
aF0.0
aF0.0
aF0.0
aF0.0
aF0.0
aF0.0
aF10.33704662322998
aF4.97251033782959
aF11.852381706237793
aF4.811643600463867
aF0.0
aF0.0
aF0.0
aF0.0
aF0.0
aF0.3177013099193573
aF0.0
aF3.7991201877593994
aF3.679781913757324
aF0.0
aF7.7597551345825195
aF0.0
aF0.0
aF0.0
aF0.0
aF17.263168334960938
aF0.0
aF0.0
aF0.0
aF0.0
aF0.0
aF0.0
aF14.091771125793457
aF5.847447395324707
aF0.0
aF0.0
aF5.160528182983398
aF10.529678344726562
aF0.0
aF0.0
aF5.227241516113281
aF7.853553295135498
aF9.458609580993652
aF0.0
aF3.2018814086914062
aF15.38172721862793
aF0.0
aF0.0
aF0.0
aF20.31683921813965
aF0.0
aF0.0
aF0.0
aF0.0
aF3.6710736751556396
aF12.075971603393555
aF11.156018257141113
aF9.800540924072266
aF0.0
aF1.0025321245193481
aF0.0
aF6.754705429077148
aF21.047767639160156
aF0.0
aF0.3369077742099762
aF0.0
aF10.27210807800293
aF0.0
aF9.919015884399414
aF0.0
aF0.0
aF0.0
aF0.0
aF0.0
aF0.0
aF0.0
aF0.0
aF0.0
aF7.592599391937256
aF0.0
aF13.094647407531738
aF1.3008232116699219
aF0.0
aF0.0
aF0.0
aF8.491632461547852
aF4.424116134643555
aF0.0
aF0.0
aF0.0
aF0.0
aF0.0
aF0.0
aF8.088653564453125
aF0.0
aF0.0
aF5.078811168670654
aF0.0
aF0.6515414714813232
aF0.0
aF0.0
aF2.0486154556274414
aF4.572394371032715
aF0.0
aF0.0
aF12.991127014160156
aF2.2627828121185303
aF0.3523794710636139
aF0.0
aF0.6500350832939148
aF0.0
aF0.0
aF0.0
aF9.342941284179688
aF0.0
aF14.37645149230957
aF5.2027668952941895
aF21.328397750854492
aF0.17810995876789093
aF0.0
aF9.115779876708984
aF0.0
aF0.0
aF0.0
aF0.0
aF0.0
aF0.0
aF1.1913636922836304
aF0.0
aF0.0
aF12.623518943786621
aF0.0
aF0.0
aF0.0
aF8.91282844543457
aF0.0
aF1.5499720573425293
aF0.0
aF0.9446197748184204
aF0.0
aF0.0
aF2.340846061706543
aF0.0
aF3.889594078063965
aF0.0
aF0.0
aF0.0
aF0.0
aF0.0
aF0.0
aF0.0
aF2.7397921085357666
aF0.0
aF0.0
aF0.0
aF5.347005367279053
aF0.0
aF8.308897018432617
aF0.0
aF0.0
aF4.4805474281311035
aF0.0
aF0.0
aF14.536004066467285
aF12.227960586547852
aF0.0
aF2.5931215286254883
aF1.1770942211151123
aF0.0
aF27.01951026916504
aF0.0
aF0.0
aF0.0
aF1.5956052541732788
aF0.0
aF0.0
aF0.0
aF0.0
aF0.0
aF0.0
aF0.0
aF0.0
aF0.0
aF0.0
aF3.707395553588867
aF0.0
aF12.775375366210938
aF0.0
aF0.0
aF0.0
aF0.0
aF0.0
aF0.0
aF0.0
aF16.394943237304688
aF10.63517951965332
aF0.0
aF0.0
aF0.0
aF0.0
aF0.14337682723999023
aF16.102783203125
aF0.0
aF0.0
aF0.0
aF0.0
aF0.0
aF0.0
aF0.0
aF0.0
aF0.0
aF0.0
aF0.0
aF0.0
aF14.576728820800781
aF5.044811725616455
aF0.0
aF4.587917327880859
aF0.0
aF0.0
aF35.67121124267578
aF0.0
aF0.0
aF11.269060134887695
aF0.0
aF10.71492862701416
aF1.681609034538269
aF0.0
aF0.0
aF0.0
aF0.0
aF0.6252484917640686
aF0.0
aF0.0
aF0.6008626818656921
aF0.0
aF0.0
aF0.0
aF3.9720547199249268
aF8.634966850280762
aF0.0
aF0.0
aF0.0
aF0.0
aF5.311842918395996
aF0.0
aF23.03062629699707
aF1.8275755643844604
aF0.0
aF0.0
aF0.0
aF3.9844343662261963
aF18.539106369018555
aF0.0
aF0.0
aF9.233427047729492
aF15.470084190368652
aF0.0
aF1.7570472955703735
aF0.0
aF25.79128074645996
aF0.0
aF0.5537157654762268
aF0.0
aF0.0
aF13.291485786437988
aF0.0
aF0.0
aF0.7930440306663513
asg5
I53
sg6
(lp48
I409
aI111
aI304
aI145
aF0.6857142791836736
aF0.03225806451612903
aF-0.31428571129251703
aF0.21505376344086022
asg8
(lp49
F0.0
aF0.0
aF0.0
aF3.267803430557251
aF0.0
aF6.0068159103393555
aF0.0
aF0.0
aF5.381489276885986
aF12.217185974121094
aF0.0
aF15.832442283630371
aF0.0
aF0.0
aF2.6263742446899414
aF0.0
aF0.0
aF0.0
aF0.5303482413291931
aF0.0
aF0.0
aF0.0
aF0.5686516761779785
aF0.0
aF0.0
aF33.46466827392578
aF0.0
aF16.030899047851562
aF0.0
aF0.0
aF4.957510471343994
aF0.0
aF0.0
aF0.0
aF1.8385026454925537
aF19.618061065673828
aF0.0
aF0.0
aF15.370664596557617
aF9.054704666137695
aF0.0
aF0.0
aF0.0
aF0.0
aF0.0
aF0.0
aF0.0
aF10.41823959350586
aF18.208433151245117
aF0.0
aF0.0
aF0.0
aF0.0
aF0.0
aF16.295827865600586
aF0.0
aF0.4774813652038574
aF0.0
aF0.0
aF0.0
aF0.0
aF0.0
aF0.0
aF0.0
aF7.731078147888184
aF0.20252229273319244
aF0.0
aF0.0
aF0.5967124104499817
aF6.286038398742676
aF0.0
aF1.9109622240066528
aF16.104040145874023
aF5.891300201416016
aF14.529464721679688
aF9.803037643432617
aF0.0
aF9.266251564025879
aF0.0
aF0.4303433299064636
aF0.0
aF0.0
aF0.0
aF0.0
aF0.0
aF0.0
aF6.036197662353516
aF0.0
aF0.0
aF16.63092613220215
aF0.0
aF11.030879974365234
aF0.0
aF7.802706241607666
aF44.909122467041016
aF0.0
aF0.0
aF0.0
aF0.0
aF0.0
aF0.0
aF0.0
aF0.0
aF7.747676849365234
aF0.0
aF0.0
aF0.0
aF0.0
aF13.974625587463379
aF0.0
aF0.0
aF0.0
aF0.0
aF0.0
aF0.0
aF0.0
aF0.0
aF0.0
aF0.0
aF0.719693124294281
aF0.0
aF0.0
aF0.0
aF13.571821212768555
aF0.0
aF0.0
aF0.0
aF12.547755241394043
aF0.0
aF0.0
aF0.0
aF2.3295977115631104
aF0.006434853654354811
aF0.0
aF0.0
aF22.576122283935547
aF0.0
aF0.0
aF0.0
aF0.0
aF0.0
aF8.280250549316406
aF0.0
aF0.0
aF0.6008287072181702
aF9.352581024169922
aF0.0
aF11.951488494873047
aF2.095268726348877
aF0.0
aF0.0
aF3.5069172382354736
aF5.5080437660217285
aF3.3482937812805176
aF22.334199905395508
aF0.0
aF9.640433311462402
aF0.0
aF0.0
aF0.0
aF0.0
aF0.0
aF0.0
aF10.141705513000488
aF0.0
aF2.5602071285247803
aF0.0
aF0.0
aF2.1717231273651123
aF6.713508605957031
aF0.0
aF2.41530179977417
aF13.482924461364746
aF0.0
aF0.0
aF0.0
aF0.0
aF20.112716674804688
aF13.566887855529785
aF0.9695068597793579
aF0.0
aF0.0
aF0.0
aF0.0
aF9.008221626281738
aF0.0
aF0.0
aF0.0
aF0.0
aF17.47637939453125
aF4.277209758758545
aF0.0
aF0.0
aF0.0
aF0.0
aF0.0
aF3.696622133255005
aF0.0
aF0.0
aF47.38821029663086
aF0.0
aF0.0
aF0.0
aF0.0
aF0.0
aF0.0
aF0.0
aF6.97722053527832
aF11.638391494750977
aF0.0
aF2.2144293785095215
aF0.0
aF5.119511127471924
aF4.884304523468018
aF7.744320869445801
aF15.546754837036133
aF0.0
aF4.915495872497559
aF3.2231521606445312
aF0.0
aF0.0
aF0.0
aF13.323331832885742
aF0.0
aF12.141369819641113
aF9.426132202148438
aF12.956064224243164
aF0.0
aF0.0
aF27.469072341918945
aF0.0
aF0.0
aF1.9780672788619995
aF0.0
aF0.0
aF0.0
aF0.0
aF8.452353477478027
aF7.328125476837158
aF0.0
aF0.0
aF0.05290770158171654
aF0.0
aF0.0
aF7.328684329986572
aF0.0
aF0.0
aF0.0
aF5.286563396453857
aF0.0
aF0.0
aF29.607685089111328
aF0.0
aF13.218048095703125
aF0.0
aF0.9651921987533569
aF17.145009994506836
aF0.0
aF0.0
aF0.0
aF0.0
aF0.0
aF0.0
aF16.713764190673828
aF14.19190502166748
aF18.170576095581055
aF0.0
aF5.65325927734375
aF0.0
aF0.0
aF18.72722625732422
aF0.0
aF0.0
aF7.101207256317139
aF0.0
aF3.063616991043091
aF10.753121376037598
aF0.0
aF0.0
aF2.9107096195220947
aF8.229194641113281
aF0.0
aF0.0
aF9.554834365844727
aF0.0
aF0.0
aF0.0
aF15.597317695617676
aF0.0
aF0.0
aF0.0
aF0.0
aF0.0
aF30.71491813659668
aF1.737087368965149
aF24.610952377319336
aF0.0
aF24.057209014892578
aF0.0
aF3.777275800704956
aF12.015667915344238
aF0.0
aF0.0
aF0.0
aF0.0
aF0.0
aF0.0
aF0.0
aF0.0
aF7.780430316925049
aF0.0
aF0.0
aF0.0
aF0.0
aF0.0
aF0.0
aF0.0
aF0.0
aF0.0
aF0.0
aF0.0
aF0.0
aF0.0
aF0.0
aF21.609291076660156
aF0.0
aF0.0
aF0.0
aF0.0
aF1.679114818572998
aF2.749455213546753
aF0.0
aF8.202605247497559
aF0.0
aF0.0
aF0.0
aF5.598579406738281
aF8.249353408813477
aF0.0
aF0.6479333639144897
aF0.0
aF7.981141567230225
aF0.0
aF9.542237281799316
aF1.898067831993103
aF7.172149658203125
aF17.199996948242188
aF8.496275901794434
aF19.334583282470703
aF10.76400375366211
aF16.583690643310547
aF2.7497611045837402
aF0.0
aF4.916491985321045
aF0.0
aF28.952497482299805
aF0.0
aF0.0
aF0.7130302786827087
aF0.0
aF2.4367406368255615
aF6.735935211181641
aF0.0
aF0.4146892726421356
aF0.0
aF0.0
aF0.0
aF0.0
aF0.0
aF6.357077121734619
aF0.0
aF0.0
aF16.56731414794922
aF0.0
aF0.0
aF0.0
aF0.0
aF0.0
aF0.0
aF0.0
aF44.673282623291016
aF15.60972785949707
aF0.9356499314308167
aF0.0
aF17.90711784362793
aF20.565954208374023
aF0.0
aF0.017471278086304665
aF0.0
aF0.2308061271905899
aF0.0
aF9.280693054199219
aF3.482668876647949
aF0.0
aF0.0
aF0.0
aF1.96230149269104
aF8.073196411132812
aF0.29492998123168945
aF16.680021286010742
aF14.89937973022461
aF0.0
aF0.0
aF0.0
aF0.0
aF0.0
aF0.0
aF0.584862470626831
aF0.0
aF0.0
aF19.689773559570312
aF7.515474796295166
aF0.6088089346885681
aF42.790283203125
aF0.0
aF18.94626808166504
aF0.0
aF0.0
aF0.0
aF0.0
aF0.0
aF0.0
aF2.379380702972412
aF0.0
aF9.499712944030762
aF14.41549301147461
aF0.0
aF9.097271919250488
aF0.0
aF8.754135131835938
aF0.04237418249249458
aF6.390640735626221
aF16.9843807220459
aF2.0539026260375977
aF0.0
aF8.094389915466309
aF0.0
aF0.0
aF11.240409851074219
aF0.0
aF8.974973678588867
aF12.61574649810791
aF0.0
aF0.0
aF5.527560234069824
aF10.053518295288086
aF0.0
aF0.0
aF0.0
aF0.0
aF0.0
aF0.0
aF0.0
aF0.0
aF20.475141525268555
aF6.030094623565674
aF0.0
aF2.7651913166046143
aF0.0
aF0.0
aF0.0
aF0.0
aF13.385464668273926
aF0.0
aF0.0
aF1.806912899017334
aF0.0
aF0.0
aF0.0
aF0.0
aF13.839089393615723
aF0.0
aF0.47370675206184387
aF0.0
aF0.0
aF0.0
aF3.6367602348327637
aF27.21414566040039
aF7.218896389007568
aF0.0
aF0.0
aF8.73642635345459
aF22.943836212158203
aF0.0
aF0.2830834686756134
aF0.0
aF0.0
aF0.0
aF0.0
aF0.0
aF0.0
aF11.196890830993652
aF12.432559967041016
aF0.0
aF0.0
aF0.0
aF23.723094940185547
aF4.033082962036133
aF0.0
aF0.31019216775894165
asg10
g41
sg12
g27
sa(dp50
g4
(lp51
F0.0
aF11.1085786819458
aF0.0
aF4.595250129699707
aF7.226802825927734
aF9.8572998046875
aF0.5682293176651001
aF0.0
aF0.0
aF17.366016387939453
aF0.0
aF0.0
aF0.0
aF0.0
aF41.8332633972168
aF0.0
aF0.0
aF0.0
aF0.0
aF0.0
aF0.0
aF0.016513895243406296
aF14.314896583557129
aF0.0
aF0.0
aF11.908834457397461
aF0.0
aF3.4685311317443848
aF0.0
aF0.0
aF12.317963600158691
aF0.8016865253448486
aF0.19032537937164307
aF0.0
aF9.164997100830078
aF0.9758086800575256
aF0.0
aF0.0
aF12.411885261535645
aF10.474018096923828
aF0.0
aF0.0
aF0.0
aF0.0
aF0.0
aF0.0
aF0.0
aF26.698400497436523
aF7.02929162979126
aF0.0
aF0.0
aF3.391799211502075
aF0.0
aF0.0
aF0.0
aF0.0
aF5.329063415527344
aF0.0
aF4.550081729888916
aF4.523263454437256
aF0.0
aF0.0
aF0.0
aF0.9672624468803406
aF1.9709842205047607
aF0.0
aF0.0
aF13.710421562194824
aF6.478134632110596
aF9.103668212890625
aF0.0
aF0.18850387632846832
aF0.0
aF0.0
aF0.0
aF0.0
aF0.0
aF1.7566502094268799
aF0.0
aF0.0
aF18.103282928466797
aF0.0
aF0.0
aF0.0
aF0.0
aF0.0
aF0.0
aF5.101766586303711
aF0.0
aF0.0
aF18.83168601989746
aF2.3671438694000244
aF0.0
aF6.386351585388184
aF28.60980796813965
aF0.0
aF0.0
aF0.0
aF0.0
aF0.0
aF0.0
aF0.0
aF0.0
aF6.551504611968994
aF0.0
aF0.0
aF0.0
aF0.0
aF6.7426252365112305
aF0.0
aF0.0
aF0.0
aF0.0
aF0.0
aF0.0
aF0.0
aF8.659660339355469
aF0.0
aF0.0
aF0.0
aF0.0
aF0.0
aF0.0
aF11.993834495544434
aF0.0
aF0.0
aF0.0
aF0.0
aF0.0
aF11.964607238769531
aF0.0
aF0.0
aF0.0
aF26.423980712890625
aF0.0
aF5.745359897613525
aF0.0
aF0.0
aF0.0
aF0.0
aF0.0
aF0.0
aF0.0
aF11.05724811553955
aF0.0
aF0.0
aF4.973245620727539
aF0.0
aF0.0
aF0.0
aF3.1816909313201904
aF0.7707198858261108
aF0.0
aF0.0
aF2.213752269744873
aF0.0
aF0.0
aF6.490358352661133
aF0.0
aF0.0
aF0.0
aF0.0
aF0.0
aF7.298800945281982
aF0.0
aF0.0
aF0.0
aF0.0
aF0.0
aF0.0
aF0.0
aF0.0
aF0.0
aF0.0
aF0.0
aF0.0
aF0.0
aF0.0
aF0.0
aF0.0
aF0.0
aF0.0
aF0.0
aF0.0
aF13.604022979736328
aF0.0
aF0.0
aF0.0
aF0.0
aF7.610672473907471
aF0.0
aF0.0
aF0.0
aF4.313248634338379
aF0.0
aF0.0
aF2.3589913845062256
aF1.8691987991333008
aF0.0
aF0.0
aF3.4125030040740967
aF0.0
aF4.501990795135498
aF4.244228363037109
aF0.0
aF0.0
aF2.8687522411346436
aF0.0
aF0.0
aF0.0
aF0.0
aF0.0
aF6.448323726654053
aF29.485593795776367
aF0.0
aF6.217193126678467
aF0.0
aF20.502918243408203
aF0.0
aF0.0
aF0.0
aF0.0
aF3.530339479446411
aF0.0
aF0.0
aF0.0
aF6.745460510253906
aF0.0
aF0.0
aF8.429617881774902
aF23.346393585205078
aF0.0
aF6.929847240447998
aF0.0
aF0.0
aF0.0
aF0.0
aF6.740860939025879
aF0.0
aF14.701220512390137
aF0.0
aF0.25593841075897217
aF0.0
aF0.0
aF0.0
aF0.0
aF0.0
aF4.853006839752197
aF14.817883491516113
aF0.0
aF0.0
aF3.785651206970215
aF0.0
aF9.075697898864746
aF0.0
aF0.0
aF0.0
aF0.0
aF3.066103935241699
aF0.0
aF0.0
aF0.0
aF0.0
aF8.95226764678955
aF20.93821144104004
aF8.271010398864746
aF2.1824023723602295
aF5.142192840576172
aF16.715190887451172
aF0.0
aF1.577304720878601
aF0.0
aF0.0
aF7.840448379516602
aF0.0
aF0.0
aF0.0
aF0.0
aF0.0
aF0.0
aF15.364731788635254
aF0.0
aF0.0
aF0.0
aF0.0
aF0.0
aF10.852459907531738
aF0.5325985550880432
aF5.128558158874512
aF0.0
aF2.840916395187378
aF0.0
aF0.31297042965888977
aF2.3974733352661133
aF0.0
aF0.0
aF0.0
aF0.0
aF0.0
aF0.0
aF15.460335731506348
aF0.0
aF0.0
aF0.0
aF0.0
aF4.947635650634766
aF0.0
aF0.0
aF0.0
aF0.0
aF0.0
aF9.455503463745117
aF10.104127883911133
aF0.0
aF0.0
aF0.0
aF0.0
aF10.486180305480957
aF0.0
aF0.0
aF0.0
aF0.0
aF0.0
aF0.0
aF7.182368278503418
aF0.0
aF0.0
aF0.0
aF0.0
aF0.0
aF3.4095706939697266
aF0.0
aF0.0
aF2.074416160583496
aF0.0
aF0.0
aF17.647167205810547
aF1.1359460353851318
aF1.9094688892364502
aF0.9585126638412476
aF0.0
aF0.15779908001422882
aF0.0
aF0.19544950127601624
aF0.0
aF0.0
aF14.064291000366211
aF15.365732192993164
aF2.7710769176483154
aF25.57604217529297
aF0.0
aF7.706644535064697
aF0.0
aF0.0
aF0.0
aF9.14408016204834
aF0.0
aF0.0
aF0.0
aF0.0
aF0.0
aF5.108767509460449
aF0.0
aF0.0
aF0.0
aF0.0
aF0.0
aF0.0
aF0.0
aF0.0
aF0.0
aF0.0
aF20.19304847717285
aF0.0
aF0.0
aF0.0
aF0.0
aF0.0
aF0.0
aF0.0
aF0.0
aF0.0
aF0.0
aF0.0
aF15.417237281799316
aF0.0
aF0.0
aF0.0
aF15.35679817199707
aF0.0
aF0.0
aF0.0
aF1.098602056503296
aF0.0
aF0.0
aF0.0
aF2.3087568283081055
aF6.450158596038818
aF0.0
aF18.34514045715332
aF15.059386253356934
aF0.0
aF0.0
aF0.0
aF0.0
aF0.0
aF0.0
aF5.256367206573486
aF0.0
aF6.3363800048828125
aF3.979037046432495
aF0.0
aF0.0
aF0.0
aF0.0
aF18.261293411254883
aF0.0
aF7.628957271575928
aF0.0
aF0.0
aF0.0
aF0.0
aF0.6113011837005615
aF0.0
aF0.0
aF3.1090946197509766
aF5.431746482849121
aF0.0
aF0.0
aF0.0
aF0.0
aF7.699027061462402
aF20.71120834350586
aF0.0
aF0.0
aF0.0
aF0.0
aF4.527188777923584
aF0.0
aF0.0
aF4.400669574737549
aF0.0
aF0.0
aF0.0
aF0.0
aF12.50428581237793
aF0.0
aF0.0
aF4.9136505126953125
aF0.0
aF0.0
aF0.0
aF0.0
aF0.0
aF10.05381965637207
aF0.0
aF0.0
aF0.0
aF11.40483283996582
aF0.0
aF0.0
aF0.0
aF0.0
aF0.0
aF0.0
aF0.0
aF0.0
aF0.0
aF0.0
aF1.2969987392425537
aF0.3475872576236725
aF0.0
aF0.0
aF0.0
aF0.0
aF4.721275329589844
aF0.0
aF0.0
aF0.0
aF0.0
aF0.0
aF0.0
aF0.0
aF8.529290199279785
aF0.0
aF0.3899901509284973
aF0.0
aF11.37313461303711
aF0.0
aF0.0
aF0.0
aF9.968181610107422
aF0.0
aF0.0
aF0.0
aF0.0
aF3.5835821628570557
aF0.0
aF0.0
aF0.0
asg5
I61
sg6
(lp52
I386
aI151
aI269
aI97
aF0.46666666222222225
aF0.24731182795698925
aF-0.6476190414512473
aF-0.043010752688172046
asg8
(lp53
F0.0
aF0.0
aF0.0
aF29.415176391601562
aF0.0
aF0.0
aF4.175580978393555
aF0.0
aF4.671967029571533
aF0.0
aF0.0
aF2.7944421768188477
aF0.0
aF0.0
aF0.0
aF1.269674301147461
aF5.904067516326904
aF0.0
aF7.2645673751831055
aF0.0
aF0.0
aF0.0
aF0.0
aF0.0
aF0.0
aF35.96966552734375
aF0.0
aF0.0
aF0.0
aF0.0
aF20.519384384155273
aF0.0
aF14.074089050292969
aF4.925481796264648
aF3.965909719467163
aF0.0
aF0.0
aF0.0
aF0.0
aF0.0
aF0.0
aF0.0
aF0.0
aF0.0
aF0.0
aF0.0
aF0.2518960237503052
aF13.72023868560791
aF23.57957649230957
aF0.0
aF0.0
aF0.0
aF0.0
aF0.0
aF14.547122955322266
aF0.0
aF0.0
aF0.0
aF0.0
aF9.226649284362793
aF0.0
aF0.0
aF2.586369276046753
aF22.5057430267334
aF0.0
aF0.0
aF0.0
aF0.0
aF0.0
aF0.0
aF0.0
aF3.50203275680542
aF2.8879051208496094
aF0.0
aF0.0
aF11.72219467163086
aF0.0
aF21.28375244140625
aF0.0
aF0.3250458836555481
aF0.0
aF0.0
aF0.0
aF0.0
aF0.0
aF0.0
aF0.0
aF0.0
aF0.0
aF0.0
aF0.0
aF0.0
aF0.0
aF0.0
aF36.5234489440918
aF0.0
aF0.0
aF0.0
aF0.5606182813644409
aF1.0569653511047363
aF0.0
aF1.0532170534133911
aF0.0
aF2.557964324951172
aF13.033729553222656
aF0.0
aF0.0
aF0.0
aF0.0
aF0.0
aF0.0
aF0.0
aF0.0
aF0.0
aF0.0
aF0.0
aF0.0
aF0.0
aF0.0
aF0.26209747791290283
aF0.0
aF0.0
aF0.0
aF11.186458587646484
aF0.0
aF0.0
aF23.933622360229492
aF0.0
aF0.0
aF0.0
aF0.0
aF3.3123178482055664
aF0.0
aF0.0
aF0.0
aF11.315896034240723
aF0.0
aF0.0
aF0.0
aF0.0
aF0.0
aF0.0
aF0.0
aF4.176644325256348
aF0.0
aF0.0
aF0.0
aF0.0
aF1.517983078956604
aF8.909285545349121
aF4.946684837341309
aF1.495146632194519
aF8.853797912597656
aF4.766467571258545
aF0.0
aF0.0
aF0.0
aF5.062716960906982
aF0.0
aF0.0
aF11.45919418334961
aF4.963383674621582
aF0.0
aF0.0
aF0.0
aF0.0
aF0.0
aF6.868296146392822
aF0.6065347194671631
aF0.0
aF0.0
aF1.993146538734436
aF0.0
aF0.7276560068130493
aF0.0
aF0.0
aF11.88145637512207
aF0.0
aF25.523508071899414
aF0.0
aF0.0
aF0.0
aF0.0
aF0.0
aF18.783287048339844
aF0.0
aF0.0
aF0.0
aF3.0881736278533936
aF29.659135818481445
aF0.0
aF0.0
aF0.0
aF0.0
aF0.0
aF0.0
aF8.821014404296875
aF0.0
aF3.491786479949951
aF0.0
aF0.0
aF0.0
aF0.0
aF0.0
aF0.0
aF0.0
aF0.0
aF5.360394477844238
aF9.57412338256836
aF0.0
aF0.0
aF2.4236578941345215
aF0.0
aF12.609491348266602
aF7.937941551208496
aF1.9012556076049805
aF0.0
aF0.0
aF0.0
aF0.0
aF0.0
aF14.632444381713867
aF0.0
aF5.298853874206543
aF10.066302299499512
aF0.0
aF0.0
aF0.0
aF0.0
aF5.361530780792236
aF30.30270767211914
aF0.0
aF0.0
aF0.0
aF0.0
aF0.0
aF9.16171646118164
aF18.509668350219727
aF18.858766555786133
aF6.766261100769043
aF0.0
aF0.0
aF0.0
aF0.0
aF9.106042861938477
aF0.0
aF0.0
aF0.0
aF15.783148765563965
aF0.0
aF10.607994079589844
aF10.335132598876953
aF0.0
aF0.0
aF3.8518476486206055
aF0.0
aF6.619406700134277
aF0.0
aF5.242143154144287
aF0.0
aF11.037866592407227
aF0.0
aF0.0
aF15.857438087463379
aF21.200716018676758
aF0.0
aF12.57855224609375
aF0.0
aF10.348936080932617
aF0.0
aF20.54814338684082
aF0.0
aF9.418194770812988
aF2.210476875305176
aF0.0
aF2.820960283279419
aF0.0
aF0.0
aF0.0
aF0.0
aF0.0
aF0.0
aF0.0
aF0.0
aF0.0
aF0.0
aF2.341994047164917
aF5.49863862991333
aF9.34959602355957
aF0.0
aF7.200285911560059
aF0.0
aF0.0
aF0.0
aF0.0
aF10.57229995727539
aF0.0
aF20.07803726196289
aF0.0
aF0.0
aF0.0
aF0.0
aF0.0
aF0.0
aF0.0
aF0.0
aF0.0
aF0.0
aF0.0
aF5.389774322509766
aF0.0
aF0.0
aF0.0
aF0.0
aF0.0
aF0.0
aF0.0
aF0.0
aF0.0
aF0.0
aF0.0
aF0.0
aF0.0
aF0.0
aF9.793065071105957
aF9.25090217590332
aF0.0
aF15.901490211486816
aF0.0
aF0.0
aF0.0
aF0.0
aF15.968083381652832
aF13.652935028076172
aF0.0
aF0.0
aF0.0
aF5.487524509429932
aF0.034100838005542755
aF8.51169204711914
aF0.23855331540107727
aF0.0
aF0.0
aF10.776949882507324
aF0.3514060974121094
aF0.0
aF10.64470386505127
aF0.0
aF12.080612182617188
aF12.478095054626465
aF6.521514415740967
aF0.0
aF0.0
aF11.53503704071045
aF0.0
aF0.0
aF0.0
aF1.565211534500122
aF0.0
aF0.0
aF4.776816368103027
aF7.9377946853637695
aF10.453777313232422
aF2.0489161014556885
aF0.0
aF9.593624114990234
aF0.0
aF22.23440170288086
aF0.0
aF0.0
aF17.008222579956055
aF0.0
aF14.020129203796387
aF0.0
aF0.0
aF0.0
aF0.0
aF0.0
aF0.0
aF0.0
aF0.0
aF0.0
aF0.0
aF0.0
aF0.0
aF0.0
aF18.47463035583496
aF0.13228411972522736
aF20.819787979125977
aF0.0
aF0.0
aF4.11531400680542
aF14.243075370788574
aF0.0
aF10.66978645324707
aF0.0
aF6.384178161621094
aF0.0
aF0.0
aF0.0
aF36.511383056640625
aF0.0
aF0.0
aF0.0
aF0.0
aF0.0
aF0.0
aF0.0
aF0.0
aF0.0
aF0.0
aF20.532367706298828
aF0.0
aF28.368022918701172
aF0.0
aF0.0
aF0.0
aF3.9533514976501465
aF0.0
aF0.0
aF1.2777233123779297
aF0.0
aF0.0
aF0.0
aF0.0
aF6.083364963531494
aF26.126489639282227
aF2.4380412101745605
aF0.0
aF0.0
aF0.0
aF0.0
aF18.96242332458496
aF1.860973834991455
aF0.0
aF23.92564582824707
aF4.527596473693848
aF0.0
aF0.0
aF1.9537864923477173
aF0.0
aF0.0
aF2.494629383087158
aF0.0
aF4.090453624725342
aF37.804935455322266
aF3.299389600753784
aF0.0
aF12.588664054870605
aF7.260317325592041
aF0.0
aF0.0
aF0.0
aF0.0
aF13.559459686279297
aF3.940487861633301
aF6.903563499450684
aF1.701230525970459
aF10.343188285827637
aF0.0
aF0.0
aF0.0
aF0.0
aF0.0
aF0.0
aF0.0
aF0.0
aF0.0
aF0.0
aF0.0
aF0.0
aF0.0
aF0.0
aF2.8221874237060547
aF0.0
aF12.550274848937988
aF0.0
aF0.0
aF12.742439270019531
aF0.0
aF0.0
aF6.094327926635742
aF18.9620418548584
aF0.0
aF0.0
aF0.0
aF20.061107635498047
aF0.0
aF0.0
aF7.319868564605713
aF0.0
aF9.310709953308105
aF0.0
aF3.376920700073242
aF0.0
aF0.0
aF0.0
aF0.0
aF0.0
aF0.0
asg10
g41
sg12
g27
sa(dp54
g4
(lp55
F0.0
aF0.0
aF0.0
aF8.0507173538208
aF3.856248617172241
aF10.332141876220703
aF6.93381929397583
aF0.0
aF0.0
aF13.459328651428223
aF0.0
aF0.0
aF0.0
aF0.0
aF15.204349517822266
aF0.0
aF0.0
aF0.0
aF0.0
aF0.0
aF0.0
aF0.0
aF0.0
aF0.0
aF0.0
aF16.37615394592285
aF0.0
aF0.0
aF0.0
aF0.0
aF17.004131317138672
aF0.0
aF8.514262199401855
aF0.0
aF19.792898178100586
aF0.025859767571091652
aF0.0
aF0.0
aF3.839672327041626
aF0.0
aF0.0
aF0.0
aF0.0
aF0.0
aF0.0
aF0.0
aF0.0
aF14.047121047973633
aF10.420906066894531
aF0.0
aF0.0
aF0.0
aF0.0
aF0.0
aF5.959190368652344
aF0.0
aF0.0
aF0.0
aF0.0
aF0.0
aF0.0
aF0.0
aF0.0
aF3.7549586296081543
aF8.140851020812988
aF2.0837018489837646
aF0.0
aF9.959297180175781
aF0.0
aF0.0
aF0.0
aF1.0260276794433594
aF0.0
aF0.5447489023208618
aF0.0
aF0.8378775715827942
aF0.0
aF1.2618074417114258
aF0.0
aF0.0
aF0.36591237783432007
aF0.0
aF0.0
aF0.0
aF0.0
aF0.0
aF2.4445455074310303
aF0.0
aF0.0
aF0.0
aF2.5353219509124756
aF0.0
aF0.0
aF1.7620735168457031
aF39.155574798583984
aF0.0
aF0.0
aF0.0
aF0.0
aF0.0
aF0.0
aF0.0
aF0.0
aF10.31882095336914
aF0.0
aF0.0
aF0.0
aF0.0
aF2.4300644397735596
aF0.0
aF0.0
aF0.0
aF0.0
aF0.0
aF0.0
aF0.0
aF2.251643657684326
aF0.0
aF0.0
aF0.9700396060943604
aF0.0
aF0.0
aF0.0
aF14.162745475769043
aF0.0
aF0.0
aF3.731940746307373
aF0.0
aF0.0
aF6.05073356628418
aF0.0
aF0.0
aF0.0
aF14.308173179626465
aF0.0
aF2.0011191368103027
aF6.419693470001221
aF0.0
aF5.2613301277160645
aF0.9732601046562195
aF0.0
aF0.0
aF0.0
aF6.109307289123535
aF1.7581340074539185
aF6.375207901000977
aF0.0
aF1.4084187746047974
aF0.0
aF0.0
aF2.1687941551208496
aF0.9343692064285278
aF6.516993522644043
aF1.952741026878357
aF2.361351490020752
aF0.0
aF0.0
aF14.345914840698242
aF0.0
aF0.0
aF0.0
aF0.0
aF0.0
aF0.0
aF0.0
aF0.0
aF0.0
aF0.0
aF1.5611145496368408
aF0.0
aF0.0
aF0.0
aF0.0
aF0.0
aF0.0
aF0.0
aF13.430625915527344
aF0.0
aF4.163357734680176
aF10.383074760437012
aF0.0
aF0.0
aF0.0
aF0.0
aF4.819988250732422
aF0.0
aF0.0
aF0.0
aF0.0
aF24.878259658813477
aF1.1805589199066162
aF0.0
aF0.0
aF0.0
aF0.0
aF0.0
aF25.158157348632812
aF6.995007514953613
aF0.0
aF0.0
aF0.0
aF0.0
aF14.086915016174316
aF0.0
aF0.0
aF0.0
aF0.0
aF0.0
aF0.0
aF0.0
aF0.0
aF0.0
aF0.0
aF25.748897552490234
aF0.0
aF6.760295391082764
aF0.0
aF21.05995750427246
aF0.0
aF0.0
aF0.0
aF2.45062255859375
aF3.3301877975463867
aF0.21846216917037964
aF0.0
aF0.0
aF0.0
aF0.0
aF0.0
aF15.188213348388672
aF14.166914939880371
aF0.0
aF0.0
aF1.928633689880371
aF0.0
aF0.0
aF0.0
aF9.808985710144043
aF0.0
aF10.446128845214844
aF0.0
aF0.0
aF0.0
aF0.0
aF0.0
aF0.0
aF0.0
aF0.0
aF4.6580891609191895
aF3.941206693649292
aF0.0
aF0.24460862576961517
aF0.0
aF0.0
aF0.0
aF0.0
aF7.626152992248535
aF0.0
aF0.0
aF0.0
aF0.0
aF0.0
aF0.0
aF15.967230796813965
aF8.333807945251465
aF3.5954227447509766
aF0.0
aF5.716217041015625
aF18.098424911499023
aF0.0
aF6.821191310882568
aF0.0
aF0.0
aF10.049409866333008
aF0.0
aF0.164105623960495
aF7.980321884155273
aF0.0
aF0.0
aF0.0
aF15.94808578491211
aF0.0
aF0.0
aF0.0
aF0.0
aF0.6457144021987915
aF8.882861137390137
aF14.55025577545166
aF13.49176025390625
aF0.0
aF3.429222822189331
aF0.0
aF6.357283115386963
aF19.54423713684082
aF0.9465150833129883
aF1.4937689304351807
aF0.0
aF3.7509520053863525
aF0.0
aF3.4503707885742188
aF1.4952384233474731
aF0.0
aF0.0
aF0.0
aF0.0
aF0.0
aF0.0
aF0.0
aF0.0
aF0.8125475645065308
aF0.0
aF13.010836601257324
aF0.0
aF0.0
aF0.0
aF0.0
aF0.0
aF1.3249213695526123
aF0.0
aF0.0
aF0.0
aF0.0
aF0.7063990831375122
aF0.0
aF6.362522125244141
aF1.479512333869934
aF0.0
aF0.0
aF0.0
aF0.0
aF2.412645101547241
aF0.0
aF5.367990970611572
aF1.0269168615341187
aF0.0
aF0.0
aF8.727831840515137
aF1.4979543685913086
aF0.0
aF1.1987049579620361
aF0.0
aF0.0
aF0.0
aF5.300390243530273
aF0.42958950996398926
aF0.0
aF22.4101619720459
aF0.5048574805259705
aF19.76468849182129
aF2.8701348304748535
aF0.0
aF6.629594326019287
aF0.0
aF0.0
aF0.0
aF0.0
aF0.0
aF0.0
aF0.0
aF0.0
aF0.0
aF16.37249183654785
aF0.0
aF0.0
aF0.0
aF2.5702731609344482
aF0.0
aF0.0
aF0.0
aF0.9977884292602539
aF4.52153205871582
aF0.0
aF7.448807239532471
aF0.0
aF0.0
aF0.0
aF0.0
aF0.0
aF0.0
aF0.0
aF0.0
aF0.0
aF0.0
aF0.0
aF14.10763168334961
aF0.0
aF0.6411446928977966
aF0.0
aF19.642868041992188
aF0.0
aF0.0
aF2.6755666732788086
aF0.7921833992004395
aF0.0
aF0.0
aF15.157867431640625
aF2.0253384113311768
aF10.111136436462402
aF0.15055952966213226
aF0.0
aF26.53521728515625
aF0.0
aF0.0
aF0.0
aF0.0
aF0.0
aF0.0
aF0.0
aF0.0
aF0.0
aF0.0
aF0.0
aF0.0
aF0.0
aF0.0
aF8.604612350463867
aF0.0
aF10.949227333068848
aF0.0
aF0.0
aF0.0
aF0.0
aF0.0
aF0.0
aF0.0
aF9.927297592163086
aF14.391457557678223
aF0.0
aF0.0
aF0.0
aF0.0
aF10.678583145141602
aF24.40120506286621
aF0.0
aF0.0
aF0.0
aF0.0
aF0.0
aF0.0
aF0.0
aF0.0
aF1.7790547609329224
aF0.0
aF0.0
aF0.0
aF26.842971801757812
aF4.632969379425049
aF0.0
aF2.3960742950439453
aF0.0
aF0.0
aF20.256759643554688
aF0.0
aF0.0
aF20.151071548461914
aF0.0
aF9.128188133239746
aF2.738676071166992
aF0.0
aF0.0
aF0.0
aF0.0
aF0.0
aF0.0
aF0.0
aF0.0
aF0.0
aF0.0
aF0.0
aF4.252735137939453
aF8.661398887634277
aF0.0
aF0.0
aF0.0
aF0.0
aF0.0
aF1.8961691856384277
aF7.565727710723877
aF7.26173734664917
aF0.0
aF0.0
aF0.0
aF0.0
aF9.218398094177246
aF0.0
aF0.0
aF19.854726791381836
aF14.940879821777344
aF0.0
aF8.264286994934082
aF0.0
aF14.231501579284668
aF0.0
aF0.0
aF4.216039657592773
aF0.0
aF12.245280265808105
aF0.0
aF0.0
aF0.6486353874206543
asg5
I67
sg6
(lp56
I411
aI123
aI295
aI152
aF0.7047618980498866
aF0.0967741935483871
aF-0.3999999961904762
aF0.25268817204301075
asg8
(lp57
F0.0
aF0.0
aF0.0
aF8.839552879333496
aF2.0423789024353027
aF10.721355438232422
aF0.0
aF0.0
aF9.409364700317383
aF11.789270401000977
aF0.0
aF12.747542381286621
aF0.0
aF0.0
aF10.298614501953125
aF0.0
aF0.0
aF0.0
aF0.0
aF0.0
aF0.0
aF0.0
aF3.164612054824829
aF0.0
aF0.0
aF25.423330307006836
aF0.0
aF10.146239280700684
aF0.0
aF0.0
aF10.95938491821289
aF0.0
aF0.0
aF0.0
aF7.786240577697754
aF18.2401123046875
aF0.0
aF0.0
aF10.21027946472168
aF6.65437126159668
aF0.0
aF0.0
aF0.0
aF0.0
aF0.0
aF0.0
aF0.0
aF17.93238639831543
aF21.120685577392578
aF0.0
aF0.0
aF0.0
aF0.0
aF0.0
aF12.644039154052734
aF0.0
aF0.0
aF0.0
aF0.0
aF0.0
aF0.0
aF0.0
aF0.0
aF5.117368698120117
aF2.9041600227355957
aF0.19008734822273254
aF0.0
aF0.0
aF0.0
aF0.0
aF0.0
aF0.5227900147438049
aF10.063288688659668
aF5.770967960357666
aF11.57917594909668
aF7.073228359222412
aF0.0
aF12.695167541503906
aF0.0
aF0.2646852731704712
aF0.0
aF0.0
aF0.0
aF0.0
aF0.0
aF0.0
aF5.885915756225586
aF0.0
aF0.0
aF17.120330810546875
aF0.0
aF8.757152557373047
aF0.0
aF0.0
aF37.96595001220703
aF0.0
aF0.0
aF0.0
aF0.0
aF0.0
aF0.0
aF0.0
aF0.0
aF11.928826332092285
aF1.569960594177246
aF0.0
aF0.0
aF0.0
aF3.3985321521759033
aF0.0
aF0.0
aF0.0
aF0.0
aF0.0
aF0.0
aF0.0
aF0.0
aF0.0
aF0.0
aF0.5545914173126221
aF0.0
aF0.0
aF0.0
aF19.066804885864258
aF0.0
aF0.0
aF0.0
aF4.573185443878174
aF0.0
aF0.0
aF0.12928646802902222
aF0.19172585010528564
aF0.0
aF0.0
aF0.0
aF33.1910285949707
aF0.0
aF0.009821170940995216
aF0.0
aF0.0
aF0.0
aF0.0
aF0.0
aF5.24778413772583
aF2.3014042377471924
aF1.382840871810913
aF0.0
aF2.7241714000701904
aF3.523395538330078
aF0.0
aF1.5990548133850098
aF7.278652191162109
aF8.62928581237793
aF0.0
aF13.77221393585205
aF0.0
aF3.8307900428771973
aF0.0
aF0.0
aF0.0
aF0.0
aF0.0
aF0.0
aF9.07422924041748
aF0.0
aF1.9004032611846924
aF0.0
aF0.0
aF2.1823463439941406
aF1.3645676374435425
aF0.0
aF0.0
aF0.0
aF0.0
aF0.0
aF0.0
aF0.0
aF13.00839614868164
aF14.372841835021973
aF0.0
aF0.0
aF0.0
aF0.0
aF0.0
aF14.686408996582031
aF0.0
aF0.0
aF0.0
aF0.0
aF17.019866943359375
aF4.426682949066162
aF0.0
aF0.0
aF0.0
aF0.0
aF0.0
aF4.127099514007568
aF0.0
aF0.0
aF33.626495361328125
aF0.0
aF0.0
aF10.975815773010254
aF3.7188689708709717
aF0.0
aF0.0
aF0.0
aF5.198809623718262
aF10.361396789550781
aF0.0
aF0.0
aF0.0
aF7.541599273681641
aF8.733809471130371
aF6.903367519378662
aF9.794229507446289
aF0.0
aF4.709565162658691
aF0.0
aF0.0
aF0.0
aF0.0
aF3.2789745330810547
aF0.0
aF6.298194408416748
aF6.13607120513916
aF9.182249069213867
aF0.0
aF0.0
aF18.97982406616211
aF0.0
aF0.0
aF0.0
aF0.0
aF0.0
aF0.3319827616214752
aF4.9781413078308105
aF13.788412094116211
aF0.0
aF6.372662544250488
aF0.0
aF0.5829148888587952
aF0.0
aF0.0
aF0.0
aF0.0
aF0.0
aF0.0
aF4.650694847106934
aF0.0
aF0.0
aF19.422452926635742
aF0.0
aF12.379292488098145
aF0.0
aF0.7532704472541809
aF10.082486152648926
aF0.0
aF0.0
aF0.0
aF0.0
aF0.0
aF0.0
aF12.178238868713379
aF19.017024993896484
aF11.176307678222656
aF0.0
aF9.93163776397705
aF1.9970004558563232
aF0.0
aF13.808697700500488
aF0.0
aF0.0
aF6.320827007293701
aF0.0
aF2.87306547164917
aF14.813289642333984
aF0.0
aF0.0
aF0.0
aF3.200181007385254
aF0.0
aF0.0
aF5.433226108551025
aF0.0
aF0.0
aF0.0
aF17.070959091186523
aF8.990278244018555
aF0.0
aF0.0
aF0.0
aF0.0
aF26.794662475585938
aF0.0
aF15.15179443359375
aF0.0
aF11.150996208190918
aF0.0
aF0.0
aF0.0
aF0.0
aF0.0
aF0.0
aF0.0
aF15.434453010559082
aF0.0
aF0.0
aF0.0
aF1.5498144626617432
aF0.0
aF0.0
aF0.0
aF0.0
aF0.0
aF0.0
aF0.0
aF3.2352001667022705
aF0.0
aF0.0
aF0.0
aF0.0
aF0.0
aF0.0
aF7.029822826385498
aF0.0
aF0.0
aF0.0
aF0.0
aF0.2782885432243347
aF16.062789916992188
aF0.0
aF4.546635627746582
aF0.0
aF0.0
aF0.0
aF3.5740866661071777
aF6.960373878479004
aF0.0
aF1.4989312887191772
aF0.0
aF3.4938364028930664
aF0.0
aF6.9966607093811035
aF0.042183440178632736
aF4.883368015289307
aF20.103073120117188
aF2.8545432090759277
aF18.038236618041992
aF13.739842414855957
aF9.120019912719727
aF0.0
aF0.0
aF2.64901065826416
aF0.0
aF36.01308059692383
aF0.0
aF0.0
aF0.8702502250671387
aF0.0
aF2.240656852722168
aF5.593568801879883
aF0.0
aF0.0
aF0.0
aF0.0
aF0.0
aF0.0
aF0.0
aF6.028112411499023
aF1.7272186279296875
aF0.0
aF14.099936485290527
aF0.0
aF0.0
aF0.0
aF0.0
aF0.0
aF0.0
aF0.0
aF44.512367248535156
aF8.509648323059082
aF0.0
aF0.0
aF10.651016235351562
aF14.17175579071045
aF2.035228729248047
aF0.0
aF6.390595436096191
aF0.43867233395576477
aF0.0
aF8.379316329956055
aF7.070520877838135
aF0.0
aF0.0
aF0.0
aF7.351105690002441
aF5.830071449279785
aF0.0
aF8.147138595581055
aF15.764511108398438
aF0.0
aF0.0
aF0.0
aF0.0
aF0.0
aF0.0
aF0.0
aF0.0
aF0.0
aF6.718456268310547
aF3.3788540363311768
aF0.0
aF48.09108352661133
aF0.0
aF8.64638900756836
aF0.0
aF1.9164260625839233
aF3.8930721282958984
aF0.0
aF0.0
aF0.0
aF6.280760288238525
aF0.0
aF1.220572829246521
aF8.324200630187988
aF5.700876712799072
aF7.062541484832764
aF0.0
aF4.997556209564209
aF0.0
aF8.1484956741333
aF23.779314041137695
aF0.0
aF0.0
aF9.275465965270996
aF2.571118116378784
aF0.0
aF0.0
aF0.0
aF3.598809003829956
aF8.881487846374512
aF0.0
aF0.0
aF0.0
aF6.695960998535156
aF0.0
aF0.0
aF4.556539058685303
aF0.0
aF0.0
aF0.0
aF0.0
aF0.0
aF21.062803268432617
aF5.303489685058594
aF0.0
aF4.370322227478027
aF3.7238121032714844
aF0.0
aF0.0
aF0.0
aF8.268671035766602
aF0.0
aF0.0
aF0.8837401866912842
aF0.0
aF0.0
aF0.0
aF0.0
aF11.586487770080566
aF0.0
aF0.0
aF0.0
aF0.14945025742053986
aF0.0
aF9.66872787475586
aF13.760600090026855
aF8.384780883789062
aF0.0
aF0.0
aF11.231185913085938
aF19.80805206298828
aF0.0
aF0.0
aF0.0
aF0.0928051620721817
aF0.0
aF0.0
aF0.0
aF0.0
aF5.700279712677002
aF2.8890340328216553
aF0.38075631856918335
aF2.402141571044922
aF0.0
aF13.42248821258545
aF3.9391028881073
aF0.0
aF0.0
asg10
g41
sg12
g27
sasS'HKG_001_b_0038'
p58
(lp59
(dp60
g4
(lp61
F0.0
aF0.0
aF0.0
aF0.0
aF14.576109886169434
aF0.0
aF0.0
aF0.0
aF0.0
aF0.0
aF0.0
aF15.947516441345215
aF0.0
aF0.0
aF0.0
aF17.777732849121094
aF0.0
aF0.0
aF0.0
aF0.0
aF0.0
aF0.0
aF7.126255035400391
aF0.0
aF0.0
aF0.0
aF0.0
aF0.0
aF0.0
aF0.0
aF0.0
aF0.0
aF0.0
aF0.0
aF0.0
aF0.0
aF0.0
aF0.0
aF0.0
aF0.0
aF0.0
aF18.281898498535156
aF2.884884834289551
aF0.0
aF0.0
aF0.0
aF0.0
aF0.0
aF4.004154682159424
aF0.0
aF0.0
aF0.0
aF6.480371475219727
aF0.0
aF0.0
aF0.0
aF6.078710079193115
aF0.0
aF0.0
aF0.0
aF0.0
aF16.422061920166016
aF2.956636905670166
aF9.413711547851562
aF9.358887672424316
aF0.0
aF0.0
aF0.0
aF0.0
aF0.0
aF0.0
aF25.138145446777344
aF0.0
aF0.0
aF0.0
aF10.627503395080566
aF0.0
aF20.802471160888672
aF0.0
aF0.0
aF0.0
aF0.0
aF0.0
aF0.0
aF0.0
aF0.0
aF0.0
aF0.0
aF0.0
aF0.0
aF0.0
aF0.0
aF0.0
aF0.0
aF1.0613622665405273
aF0.0
aF0.0
aF0.0
aF0.0
aF0.3709861934185028
aF0.0
aF0.0
aF0.0
aF0.0
aF0.0
aF0.0
aF0.0
aF0.0
aF0.0
aF0.0
aF0.7940069437026978
aF0.0
aF0.0
aF0.0
aF0.0
aF3.1636853218078613
aF0.0
aF0.0
aF0.0
aF0.0
aF0.0
aF0.0
aF0.0
aF0.0
aF0.0
aF0.0
aF0.0
aF6.341365337371826
aF0.0
aF10.196120262145996
aF0.0
aF2.351773738861084
aF0.0
aF0.0
aF0.0
aF0.0
aF0.0
aF0.0
aF0.0
aF0.0
aF0.0
aF0.0
aF0.0
aF1.194495439529419
aF0.0
aF0.0
aF0.0
aF12.923501968383789
aF0.0
aF0.0
aF0.0
aF0.0
aF1.7760634422302246
aF0.0
aF0.0
aF0.0
aF13.002031326293945
aF0.0
aF0.0
aF0.0
aF3.210927963256836
aF4.043140888214111
aF0.0
aF0.0
aF0.0
aF0.0
aF0.7013311982154846
aF0.0
aF0.0
aF0.0
aF0.0
aF0.0
aF1.2654403448104858
aF0.0
aF0.0
aF0.0
aF0.0
aF0.0
aF0.0
aF0.0
aF0.0
aF0.0
aF0.0
aF0.0
aF0.0
aF0.0
aF0.0
aF0.0
aF0.0
aF0.0
aF0.0
aF0.0
aF0.0
aF0.0
aF0.0
aF0.0
aF0.0
aF0.0
aF0.0
aF0.0
aF0.0
aF0.0
aF0.0
aF0.0
aF0.0
aF0.0
aF0.0
aF0.0
aF0.0
aF0.0
aF0.0
aF0.0
aF0.0
aF0.0
aF0.0
aF0.0
aF0.0
aF0.0
aF0.0
aF0.0
aF0.0
aF0.0
aF0.0
aF0.0
aF0.0
aF2.704151153564453
aF0.0
aF0.0
aF0.0
aF0.0
aF3.2364211082458496
aF0.0
aF0.0
aF5.029880046844482
aF0.0
aF4.866124153137207
aF0.0
aF11.776914596557617
aF0.0
aF0.0
aF0.0
aF0.0
aF0.0
aF0.0
aF0.0
aF0.0
aF0.0
aF0.0
aF0.0
aF0.0
aF0.0
aF0.0
aF0.0
aF0.0
aF0.0
aF0.0
aF10.466997146606445
aF0.0
aF0.0
aF0.0
aF0.0
aF0.0
aF0.0
aF0.0
aF0.0
aF0.0
aF0.0
aF0.0
aF0.0
aF0.0
aF4.616959571838379
aF0.0
aF0.0
aF0.0
aF0.0
aF0.0
aF0.0
aF0.0
aF0.0
aF0.0
aF0.0
aF0.0
aF0.0
aF0.0
aF0.0
aF12.683640480041504
aF0.0
aF0.0
aF0.0
aF0.0
aF0.058828204870224
aF0.0
aF0.0
aF0.0
aF0.0
aF0.7356118559837341
aF0.0
aF11.136236190795898
aF0.0
aF0.0
aF0.0
aF0.0
aF0.0
aF0.0
aF0.0
aF0.0
aF0.0
aF0.0
aF1.2376998662948608
aF9.383400917053223
aF0.0
aF0.0
aF0.0
aF0.0
aF0.0
aF0.0
aF0.0
aF0.0
aF0.0
aF0.0
aF0.0
aF9.51102066040039
aF0.0
aF0.0
aF4.3720173835754395
aF0.0
aF0.0
aF0.0
aF0.0
aF17.799312591552734
aF0.0
aF0.0
aF0.0
aF0.0
aF0.0
aF0.0
aF0.0
aF11.719416618347168
aF0.0
aF0.0
aF0.0
aF13.94938850402832
aF0.0
aF0.0
aF0.0
aF0.0
aF0.0
aF0.0
aF9.936495780944824
aF0.0
aF10.507720947265625
aF15.183539390563965
aF0.0
aF0.0
aF0.0
aF0.0
aF0.0
aF0.0
aF0.0
aF3.9551877975463867
aF0.0
aF0.0
aF0.0
aF0.0
aF0.0
aF0.0
aF0.0
aF0.0
aF0.0
aF0.0
aF0.0
aF0.0
aF0.0
aF0.0
aF0.0
aF0.0
aF0.0
aF0.0
aF0.0
aF0.0
aF0.0
aF0.0
aF0.0
aF0.0
aF0.0
aF0.0
aF7.42262077331543
aF0.0
aF0.0
aF0.0
aF0.0
aF0.0
aF0.0
aF0.0
aF0.0
aF5.272116661071777
aF0.8559731841087341
aF0.0
aF0.0
aF0.0
aF0.0
aF0.0
aF0.0
aF0.0
aF0.0
aF0.0
aF0.0
aF0.0
aF0.0
aF0.0
aF0.0
aF0.0
aF0.8382659554481506
aF0.0
aF0.0
aF0.0
aF0.0
aF0.0
aF0.0
aF17.1513614654541
aF0.0
aF0.0
aF0.0
aF0.0
aF0.0
aF0.0
aF0.0
aF0.0
aF0.0
aF0.0
aF0.0
aF0.0
aF0.0
aF0.0
aF0.0
aF0.0
aF0.0
aF0.0
aF0.0
aF0.09422793239355087
aF5.399674892425537
aF0.0
aF0.0
aF0.0
aF20.511865615844727
aF0.0
aF0.0
aF0.0
aF0.0
aF0.0
aF0.0
aF0.0
aF0.0
aF0.0
aF0.0
aF0.0
aF0.0
aF0.0
aF0.0
aF0.0
aF0.0
aF0.0
aF0.0
aF0.0
aF0.0
aF0.0
aF0.0
aF0.0
aF0.0
aF0.0
aF0.0
aF0.0
aF2.5268614292144775
aF18.709707260131836
aF0.0
aF10.986400604248047
aF0.0
aF0.0
aF0.0
aF4.856264591217041
aF0.0
aF0.8894542455673218
aF12.217137336730957
aF0.0
aF0.0
aF0.0
aF0.0
aF6.229758262634277
aF0.0
aF0.0
aF0.0
aF0.0
aF27.05941390991211
aF0.0
aF0.0
aF0.0
aF0.0
aF0.0
aF0.0
aF0.0
asg5
I33
sg6
(lp62
I379
aI119
aI174
aI317
aF0.8105263072576179
aF0.10112359550561797
aF-1.3473684068698062
aF1.2134831460674158
asg8
(lp63
F0.0
aF0.0
aF0.0
aF0.0
aF9.842887878417969
aF0.0
aF0.0
aF0.0
aF0.0
aF0.0
aF0.0
aF21.000106811523438
aF0.0
aF0.0
aF0.0
aF11.832476615905762
aF0.0
aF0.0
aF7.810751914978027
aF0.0
aF0.0
aF0.0
aF8.000545501708984
aF0.0
aF0.0
aF4.876589298248291
aF0.0
aF0.3860523998737335
aF0.0
aF0.0
aF0.0
aF0.0
aF0.0
aF0.0
aF0.0
aF4.906253337860107
aF0.0
aF0.9909278154373169
aF0.0
aF8.819536209106445
aF0.0
aF13.8077974319458
aF1.55181086063385
aF0.0
aF0.0
aF0.0
aF0.0
aF0.0
aF0.0
aF0.0
aF0.0
aF0.0
aF7.639017581939697
aF0.0
aF4.303423881530762
aF0.0
aF9.78617000579834
aF0.0
aF10.400578498840332
aF10.155852317810059
aF0.0
aF23.122705459594727
aF2.8220725059509277
aF3.836744546890259
aF20.58377456665039
aF0.0
aF0.0
aF0.0
aF0.0
aF4.756655216217041
aF0.0
aF11.491061210632324
aF0.0
aF0.0
aF0.0
aF1.4662842750549316
aF7.056085586547852
aF17.928634643554688
aF0.0
aF0.0
aF0.0
aF0.0
aF0.0
aF0.0
aF0.0
aF0.0
aF0.0
aF0.0
aF0.0
aF0.0
aF0.0
aF0.0
aF0.0
aF6.522665977478027
aF6.747167110443115
aF0.0
aF0.0
aF0.0
aF0.0
aF0.0
aF0.0
aF0.0
aF0.0
aF0.0
aF0.0
aF0.0
aF0.0
aF0.0
aF1.1475526094436646
aF0.0
aF0.0
aF0.0
aF0.0
aF0.0
aF0.0
aF0.0
aF0.0
aF0.0
aF0.0
aF0.0
aF0.0
aF0.0
aF0.0
aF0.0
aF0.0
aF0.0
aF0.0
aF14.430107116699219
aF0.0
aF0.0
aF0.0
aF10.545028686523438
aF0.0
aF0.0
aF0.0
aF0.0
aF0.0
aF0.0
aF0.0
aF0.0
aF0.0
aF0.46255701780319214
aF0.0
aF0.0
aF9.64460563659668
aF0.0
aF0.0
aF26.527374267578125
aF0.0
aF0.0
aF0.0
aF0.0
aF4.816858768463135
aF0.0
aF1.2407976388931274
aF10.79330825805664
aF22.772199630737305
aF0.0
aF0.0
aF0.0
aF6.959158420562744
aF9.25265884399414
aF0.0
aF14.380472183227539
aF0.0
aF0.0
aF0.0
aF0.0
aF0.0
aF0.0
aF0.0
aF0.0
aF17.360267639160156
aF0.0
aF0.0
aF0.0
aF0.0
aF17.521181106567383
aF0.0
aF0.0
aF0.0
aF0.0
aF0.0
aF0.0
aF6.408725261688232
aF0.0
aF0.0
aF0.0
aF0.0
aF0.0
aF0.0
aF0.0
aF0.0
aF0.0
aF0.0
aF0.0
aF0.0
aF0.0
aF0.0
aF13.140140533447266
aF0.0
aF0.0
aF0.0
aF0.0
aF0.0
aF0.0
aF0.0
aF0.0
aF0.0
aF0.0
aF0.0
aF0.0
aF3.448932409286499
aF0.0
aF6.507807731628418
aF7.401050567626953
aF0.0
aF0.0
aF13.884674072265625
aF0.0
aF0.0
aF0.0
aF6.183287620544434
aF0.0
aF24.47157859802246
aF7.2209343910217285
aF3.2998690605163574
aF0.0
aF0.0
aF0.0
aF0.0
aF0.0
aF0.0
aF0.0
aF0.0
aF5.724793910980225
aF0.0
aF7.018200874328613
aF4.534717559814453
aF0.0
aF0.0
aF0.0
aF0.0
aF0.0
aF0.0
aF0.0
aF0.0
aF0.0
aF1.2879810333251953
aF0.0
aF0.0
aF0.0
aF0.0
aF0.0
aF14.054693222045898
aF0.0
aF22.745418548583984
aF0.0
aF0.0
aF0.0
aF0.0
aF0.0
aF0.0
aF0.0
aF0.0
aF0.0
aF0.0
aF0.0
aF0.0
aF0.0
aF2.265894651412964
aF0.0
aF0.0
aF0.0
aF0.0
aF0.0
aF0.0
aF0.0
aF0.0
aF2.6505751609802246
aF0.0
aF0.0
aF0.0
aF0.0
aF2.7669126987457275
aF13.824905395507812
aF0.0
aF0.0
aF0.0
aF0.0
aF0.0
aF0.0
aF0.0
aF9.537162780761719
aF0.0
aF17.235387802124023
aF0.0
aF41.427978515625
aF0.0
aF0.0
aF0.0
aF0.0
aF0.0
aF0.0
aF6.025192737579346
aF0.0
aF0.0
aF0.0
aF0.0
aF2.1413161754608154
aF0.0
aF0.0
aF0.0
aF0.0
aF0.0
aF4.933439254760742
aF0.0
aF0.0
aF0.0
aF0.0
aF0.0
aF0.0
aF0.0
aF0.0
aF23.378149032592773
aF0.0
aF10.898228645324707
aF0.0
aF0.0
aF16.347980499267578
aF0.0
aF0.0
aF0.0
aF0.0
aF0.0
aF0.0
aF0.0
aF7.941669940948486
aF0.0
aF0.0
aF0.0
aF22.673311233520508
aF0.0
aF0.0
aF0.0
aF15.256654739379883
aF0.0
aF0.0
aF16.867769241333008
aF0.0
aF27.32454490661621
aF7.175810813903809
aF0.0
aF0.0
aF0.0
aF9.328936576843262
aF0.0
aF0.0
aF0.0
aF1.8723589181900024
aF15.284517288208008
aF0.0
aF0.0
aF0.0
aF0.0
aF0.0
aF0.0
aF2.5979466438293457
aF0.0
aF0.0
aF5.0706915855407715
aF0.0
aF0.0
aF0.0
aF0.0
aF0.0
aF0.0
aF0.0
aF0.0
aF0.0
aF16.156145095825195
aF19.87381362915039
aF0.0
aF0.0
aF0.0
aF4.012500286102295
aF0.0
aF0.0
aF0.0
aF0.0
aF0.0
aF0.0
aF0.0
aF0.0
aF0.0
aF13.749944686889648
aF0.0
aF0.0
aF0.0
aF0.0
aF0.0
aF0.0
aF0.0
aF0.0
aF0.0
aF0.0
aF0.0
aF18.587291717529297
aF0.0
aF0.0
aF5.457387924194336
aF0.0
aF1.9175870418548584
aF0.0
aF0.0
aF0.0
aF0.0
aF0.0
aF0.0
aF0.0
aF0.0
aF0.0
aF7.546621799468994
aF0.0
aF7.254771709442139
aF3.0046374797821045
aF0.0
aF0.0
aF0.0
aF0.0
aF0.0
aF0.0
aF0.0
aF0.0
aF0.0
aF0.0
aF0.0
aF0.0
aF19.09544563293457
aF0.0
aF13.077577590942383
aF0.0
aF0.0
aF0.0
aF16.204133987426758
aF0.0
aF0.0
aF0.0
aF0.0
aF0.0
aF0.0
aF0.0
aF0.0
aF0.0
aF0.0
aF1.3144491910934448
aF0.0
aF0.0
aF0.0
aF0.0
aF0.0
aF0.0
aF18.075267791748047
aF0.0
aF1.0495896339416504
aF0.0
aF0.0
aF0.0
aF0.0
aF0.0
aF2.5189175605773926
aF0.0
aF13.66419792175293
aF25.673446655273438
aF0.0
aF0.0
aF0.0
aF0.0
aF0.0
aF10.646462440490723
aF0.0
aF6.305428981781006
aF16.71204948425293
aF0.0
aF0.572665810585022
aF0.0
aF0.0
aF4.168686389923096
aF0.41452592611312866
aF0.0
aF0.0
aF0.0
aF35.21088790893555
aF0.0
aF0.0
aF0.0
aF0.09780257940292358
aF5.047882080078125
aF0.0
aF0.0
asg10
S'HKG_001_b_0038 Aaron 872'
p64
sg12
g27
sas.